
nimble_linux:     file format elf32-littlearm


Disassembly of section .init:

00011f4c <_init>:
   11f4c:	e1a0c00d 	mov	ip, sp
   11f50:	e92ddff0 	push	{r4, r5, r6, r7, r8, r9, sl, fp, ip, lr, pc}
   11f54:	e24cb004 	sub	fp, ip, #4
   11f58:	e91baff0 	ldmdb	fp, {r4, r5, r6, r7, r8, r9, sl, fp, sp, pc}

Disassembly of section .plt:

00011f5c <.plt>:
   11f5c:	e52de004 	push	{lr}		; (str lr, [sp, #-4]!)
   11f60:	e59fe004 	ldr	lr, [pc, #4]	; 11f6c <.plt+0x10>
   11f64:	e08fe00e 	add	lr, pc, lr
   11f68:	e5bef008 	ldr	pc, [lr, #8]!
   11f6c:	00046094 	.word	0x00046094

00011f70 <timer_settime@plt>:
   11f70:	e28fc600 	add	ip, pc, #0, 12
   11f74:	e28cca46 	add	ip, ip, #286720	; 0x46000
   11f78:	e5bcf094 	ldr	pc, [ip, #148]!	; 0x94

00011f7c <sem_init@plt>:
   11f7c:	e28fc600 	add	ip, pc, #0, 12
   11f80:	e28cca46 	add	ip, ip, #286720	; 0x46000
   11f84:	e5bcf08c 	ldr	pc, [ip, #140]!	; 0x8c

00011f88 <bind@plt>:
   11f88:	e28fc600 	add	ip, pc, #0, 12
   11f8c:	e28cca46 	add	ip, ip, #286720	; 0x46000
   11f90:	e5bcf084 	ldr	pc, [ip, #132]!	; 0x84

00011f94 <__register_frame_info@plt>:
   11f94:	e28fc600 	add	ip, pc, #0, 12
   11f98:	e28cca46 	add	ip, ip, #286720	; 0x46000
   11f9c:	e5bcf07c 	ldr	pc, [ip, #124]!	; 0x7c

00011fa0 <pthread_attr_setschedparam@plt>:
   11fa0:	e28fc600 	add	ip, pc, #0, 12
   11fa4:	e28cca46 	add	ip, ip, #286720	; 0x46000
   11fa8:	e5bcf074 	ldr	pc, [ip, #116]!	; 0x74

00011fac <calloc@plt>:
   11fac:	e28fc600 	add	ip, pc, #0, 12
   11fb0:	e28cca46 	add	ip, ip, #286720	; 0x46000
   11fb4:	e5bcf06c 	ldr	pc, [ip, #108]!	; 0x6c

00011fb8 <__errno_location@plt>:
   11fb8:	e28fc600 	add	ip, pc, #0, 12
   11fbc:	e28cca46 	add	ip, ip, #286720	; 0x46000
   11fc0:	e5bcf064 	ldr	pc, [ip, #100]!	; 0x64

00011fc4 <_ZNSt8__detail15_List_node_base9_M_unhookEv@plt>:
   11fc4:	e28fc600 	add	ip, pc, #0, 12
   11fc8:	e28cca46 	add	ip, ip, #286720	; 0x46000
   11fcc:	e5bcf05c 	ldr	pc, [ip, #92]!	; 0x5c

00011fd0 <clock_gettime@plt>:
   11fd0:	e28fc600 	add	ip, pc, #0, 12
   11fd4:	e28cca46 	add	ip, ip, #286720	; 0x46000
   11fd8:	e5bcf054 	ldr	pc, [ip, #84]!	; 0x54

00011fdc <open@plt>:
   11fdc:	e28fc600 	add	ip, pc, #0, 12
   11fe0:	e28cca46 	add	ip, ip, #286720	; 0x46000
   11fe4:	e5bcf04c 	ldr	pc, [ip, #76]!	; 0x4c

00011fe8 <system@plt>:
   11fe8:	e28fc600 	add	ip, pc, #0, 12
   11fec:	e28cca46 	add	ip, ip, #286720	; 0x46000
   11ff0:	e5bcf044 	ldr	pc, [ip, #68]!	; 0x44

00011ff4 <usleep@plt>:
   11ff4:	e28fc600 	add	ip, pc, #0, 12
   11ff8:	e28cca46 	add	ip, ip, #286720	; 0x46000
   11ffc:	e5bcf03c 	ldr	pc, [ip, #60]!	; 0x3c

00012000 <memcpy@plt>:
   12000:	e28fc600 	add	ip, pc, #0, 12
   12004:	e28cca46 	add	ip, ip, #286720	; 0x46000
   12008:	e5bcf034 	ldr	pc, [ip, #52]!	; 0x34

0001200c <sleep@plt>:
   1200c:	e28fc600 	add	ip, pc, #0, 12
   12010:	e28cca46 	add	ip, ip, #286720	; 0x46000
   12014:	e5bcf02c 	ldr	pc, [ip, #44]!	; 0x2c

00012018 <realloc@plt>:
   12018:	e28fc600 	add	ip, pc, #0, 12
   1201c:	e28cca46 	add	ip, ip, #286720	; 0x46000
   12020:	e5bcf024 	ldr	pc, [ip, #36]!	; 0x24

00012024 <_ZdlPv@plt>:
   12024:	e28fc600 	add	ip, pc, #0, 12
   12028:	e28cca46 	add	ip, ip, #286720	; 0x46000
   1202c:	e5bcf01c 	ldr	pc, [ip, #28]!

00012030 <pthread_mutex_init@plt>:
   12030:	e28fc600 	add	ip, pc, #0, 12
   12034:	e28cca46 	add	ip, ip, #286720	; 0x46000
   12038:	e5bcf014 	ldr	pc, [ip, #20]!

0001203c <pthread_mutexattr_settype@plt>:
   1203c:	e28fc600 	add	ip, pc, #0, 12
   12040:	e28cca46 	add	ip, ip, #286720	; 0x46000
   12044:	e5bcf00c 	ldr	pc, [ip, #12]!

00012048 <putchar@plt>:
   12048:	e28fc600 	add	ip, pc, #0, 12
   1204c:	e28cca46 	add	ip, ip, #286720	; 0x46000
   12050:	e5bcf004 	ldr	pc, [ip, #4]!

00012054 <pthread_attr_init@plt>:
   12054:	e28fc600 	add	ip, pc, #0, 12
   12058:	e28cca45 	add	ip, ip, #282624	; 0x45000
   1205c:	e5bcfffc 	ldr	pc, [ip, #4092]!	; 0xffc

00012060 <strtoul@plt>:
   12060:	e28fc600 	add	ip, pc, #0, 12
   12064:	e28cca45 	add	ip, ip, #282624	; 0x45000
   12068:	e5bcfff4 	ldr	pc, [ip, #4084]!	; 0xff4

0001206c <malloc@plt>:
   1206c:	e28fc600 	add	ip, pc, #0, 12
   12070:	e28cca45 	add	ip, ip, #282624	; 0x45000
   12074:	e5bcffec 	ldr	pc, [ip, #4076]!	; 0xfec

00012078 <__uClibc_main@plt>:
   12078:	e28fc600 	add	ip, pc, #0, 12
   1207c:	e28cca45 	add	ip, ip, #282624	; 0x45000
   12080:	e5bcffe4 	ldr	pc, [ip, #4068]!	; 0xfe4

00012084 <ioctl@plt>:
   12084:	e28fc600 	add	ip, pc, #0, 12
   12088:	e28cca45 	add	ip, ip, #282624	; 0x45000
   1208c:	e5bcffdc 	ldr	pc, [ip, #4060]!	; 0xfdc

00012090 <strlen@plt>:
   12090:	e28fc600 	add	ip, pc, #0, 12
   12094:	e28cca45 	add	ip, ip, #282624	; 0x45000
   12098:	e5bcffd4 	ldr	pc, [ip, #4052]!	; 0xfd4

0001209c <pthread_mutex_lock@plt>:
   1209c:	e28fc600 	add	ip, pc, #0, 12
   120a0:	e28cca45 	add	ip, ip, #282624	; 0x45000
   120a4:	e5bcffcc 	ldr	pc, [ip, #4044]!	; 0xfcc

000120a8 <strtol@plt>:
   120a8:	e28fc600 	add	ip, pc, #0, 12
   120ac:	e28cca45 	add	ip, ip, #282624	; 0x45000
   120b0:	e5bcffc4 	ldr	pc, [ip, #4036]!	; 0xfc4

000120b4 <fcntl@plt>:
   120b4:	e28fc600 	add	ip, pc, #0, 12
   120b8:	e28cca45 	add	ip, ip, #282624	; 0x45000
   120bc:	e5bcffbc 	ldr	pc, [ip, #4028]!	; 0xfbc

000120c0 <snprintf@plt>:
   120c0:	e28fc600 	add	ip, pc, #0, 12
   120c4:	e28cca45 	add	ip, ip, #282624	; 0x45000
   120c8:	e5bcffb4 	ldr	pc, [ip, #4020]!	; 0xfb4

000120cc <read@plt>:
   120cc:	e28fc600 	add	ip, pc, #0, 12
   120d0:	e28cca45 	add	ip, ip, #282624	; 0x45000
   120d4:	e5bcffac 	ldr	pc, [ip, #4012]!	; 0xfac

000120d8 <select@plt>:
   120d8:	e28fc600 	add	ip, pc, #0, 12
   120dc:	e28cca45 	add	ip, ip, #282624	; 0x45000
   120e0:	e5bcffa4 	ldr	pc, [ip, #4004]!	; 0xfa4

000120e4 <sem_destroy@plt>:
   120e4:	e28fc600 	add	ip, pc, #0, 12
   120e8:	e28cca45 	add	ip, ip, #282624	; 0x45000
   120ec:	e5bcff9c 	ldr	pc, [ip, #3996]!	; 0xf9c

000120f0 <__assert@plt>:
   120f0:	e28fc600 	add	ip, pc, #0, 12
   120f4:	e28cca45 	add	ip, ip, #282624	; 0x45000
   120f8:	e5bcff94 	ldr	pc, [ip, #3988]!	; 0xf94

000120fc <getpid@plt>:
   120fc:	e28fc600 	add	ip, pc, #0, 12
   12100:	e28cca45 	add	ip, ip, #282624	; 0x45000
   12104:	e5bcff8c 	ldr	pc, [ip, #3980]!	; 0xf8c

00012108 <strtoull@plt>:
   12108:	e28fc600 	add	ip, pc, #0, 12
   1210c:	e28cca45 	add	ip, ip, #282624	; 0x45000
   12110:	e5bcff84 	ldr	pc, [ip, #3972]!	; 0xf84

00012114 <pthread_mutex_timedlock@plt>:
   12114:	e28fc600 	add	ip, pc, #0, 12
   12118:	e28cca45 	add	ip, ip, #282624	; 0x45000
   1211c:	e5bcff7c 	ldr	pc, [ip, #3964]!	; 0xf7c

00012120 <memmove@plt>:
   12120:	e28fc600 	add	ip, pc, #0, 12
   12124:	e28cca45 	add	ip, ip, #282624	; 0x45000
   12128:	e5bcff74 	ldr	pc, [ip, #3956]!	; 0xf74

0001212c <pclose@plt>:
   1212c:	e28fc600 	add	ip, pc, #0, 12
   12130:	e28cca45 	add	ip, ip, #282624	; 0x45000
   12134:	e5bcff6c 	ldr	pc, [ip, #3948]!	; 0xf6c

00012138 <sem_timedwait@plt>:
   12138:	e28fc600 	add	ip, pc, #0, 12
   1213c:	e28cca45 	add	ip, ip, #282624	; 0x45000
   12140:	e5bcff64 	ldr	pc, [ip, #3940]!	; 0xf64

00012144 <time@plt>:
   12144:	e28fc600 	add	ip, pc, #0, 12
   12148:	e28cca45 	add	ip, ip, #282624	; 0x45000
   1214c:	e5bcff5c 	ldr	pc, [ip, #3932]!	; 0xf5c

00012150 <strtok@plt>:
   12150:	e28fc600 	add	ip, pc, #0, 12
   12154:	e28cca45 	add	ip, ip, #282624	; 0x45000
   12158:	e5bcff54 	ldr	pc, [ip, #3924]!	; 0xf54

0001215c <pthread_create@plt>:
   1215c:	e28fc600 	add	ip, pc, #0, 12
   12160:	e28cca45 	add	ip, ip, #282624	; 0x45000
   12164:	e5bcff4c 	ldr	pc, [ip, #3916]!	; 0xf4c

00012168 <write@plt>:
   12168:	e28fc600 	add	ip, pc, #0, 12
   1216c:	e28cca45 	add	ip, ip, #282624	; 0x45000
   12170:	e5bcff44 	ldr	pc, [ip, #3908]!	; 0xf44

00012174 <pthread_cond_signal@plt>:
   12174:	e28fc600 	add	ip, pc, #0, 12
   12178:	e28cca45 	add	ip, ip, #282624	; 0x45000
   1217c:	e5bcff3c 	ldr	pc, [ip, #3900]!	; 0xf3c

00012180 <close@plt>:
   12180:	e28fc600 	add	ip, pc, #0, 12
   12184:	e28cca45 	add	ip, ip, #282624	; 0x45000
   12188:	e5bcff34 	ldr	pc, [ip, #3892]!	; 0xf34

0001218c <timer_create@plt>:
   1218c:	e28fc600 	add	ip, pc, #0, 12
   12190:	e28cca45 	add	ip, ip, #282624	; 0x45000
   12194:	e5bcff2c 	ldr	pc, [ip, #3884]!	; 0xf2c

00012198 <random@plt>:
   12198:	e28fc600 	add	ip, pc, #0, 12
   1219c:	e28cca45 	add	ip, ip, #282624	; 0x45000
   121a0:	e5bcff24 	ldr	pc, [ip, #3876]!	; 0xf24

000121a4 <pthread_mutexattr_init@plt>:
   121a4:	e28fc600 	add	ip, pc, #0, 12
   121a8:	e28cca45 	add	ip, ip, #282624	; 0x45000
   121ac:	e5bcff1c 	ldr	pc, [ip, #3868]!	; 0xf1c

000121b0 <fgets@plt>:
   121b0:	e28fc600 	add	ip, pc, #0, 12
   121b4:	e28cca45 	add	ip, ip, #282624	; 0x45000
   121b8:	e5bcff14 	ldr	pc, [ip, #3860]!	; 0xf14

000121bc <pthread_self@plt>:
   121bc:	e28fc600 	add	ip, pc, #0, 12
   121c0:	e28cca45 	add	ip, ip, #282624	; 0x45000
   121c4:	e5bcff0c 	ldr	pc, [ip, #3852]!	; 0xf0c

000121c8 <sscanf@plt>:
   121c8:	e28fc600 	add	ip, pc, #0, 12
   121cc:	e28cca45 	add	ip, ip, #282624	; 0x45000
   121d0:	e5bcff04 	ldr	pc, [ip, #3844]!	; 0xf04

000121d4 <_ZNSt8__detail15_List_node_base7_M_hookEPS0_@plt>:
   121d4:	e28fc600 	add	ip, pc, #0, 12
   121d8:	e28cca45 	add	ip, ip, #282624	; 0x45000
   121dc:	e5bcfefc 	ldr	pc, [ip, #3836]!	; 0xefc

000121e0 <strncpy@plt>:
   121e0:	e28fc600 	add	ip, pc, #0, 12
   121e4:	e28cca45 	add	ip, ip, #282624	; 0x45000
   121e8:	e5bcfef4 	ldr	pc, [ip, #3828]!	; 0xef4

000121ec <_Znwj@plt>:
   121ec:	e28fc600 	add	ip, pc, #0, 12
   121f0:	e28cca45 	add	ip, ip, #282624	; 0x45000
   121f4:	e5bcfeec 	ldr	pc, [ip, #3820]!	; 0xeec

000121f8 <pthread_cond_init@plt>:
   121f8:	e28fc600 	add	ip, pc, #0, 12
   121fc:	e28cca45 	add	ip, ip, #282624	; 0x45000
   12200:	e5bcfee4 	ldr	pc, [ip, #3812]!	; 0xee4

00012204 <fputs@plt>:
   12204:	e28fc600 	add	ip, pc, #0, 12
   12208:	e28cca45 	add	ip, ip, #282624	; 0x45000
   1220c:	e5bcfedc 	ldr	pc, [ip, #3804]!	; 0xedc

00012210 <pthread_attr_setschedpolicy@plt>:
   12210:	e28fc600 	add	ip, pc, #0, 12
   12214:	e28cca45 	add	ip, ip, #282624	; 0x45000
   12218:	e5bcfed4 	ldr	pc, [ip, #3796]!	; 0xed4

0001221c <unlink@plt>:
   1221c:	e28fc600 	add	ip, pc, #0, 12
   12220:	e28cca45 	add	ip, ip, #282624	; 0x45000
   12224:	e5bcfecc 	ldr	pc, [ip, #3788]!	; 0xecc

00012228 <memset@plt>:
   12228:	e28fc600 	add	ip, pc, #0, 12
   1222c:	e28cca45 	add	ip, ip, #282624	; 0x45000
   12230:	e5bcfec4 	ldr	pc, [ip, #3780]!	; 0xec4

00012234 <fprintf@plt>:
   12234:	e28fc600 	add	ip, pc, #0, 12
   12238:	e28cca45 	add	ip, ip, #282624	; 0x45000
   1223c:	e5bcfebc 	ldr	pc, [ip, #3772]!	; 0xebc

00012240 <nanosleep@plt>:
   12240:	e28fc600 	add	ip, pc, #0, 12
   12244:	e28cca45 	add	ip, ip, #282624	; 0x45000
   12248:	e5bcfeb4 	ldr	pc, [ip, #3764]!	; 0xeb4

0001224c <abort@plt>:
   1224c:	e28fc600 	add	ip, pc, #0, 12
   12250:	e28cca45 	add	ip, ip, #282624	; 0x45000
   12254:	e5bcfeac 	ldr	pc, [ip, #3756]!	; 0xeac

00012258 <memcmp@plt>:
   12258:	e28fc600 	add	ip, pc, #0, 12
   1225c:	e28cca45 	add	ip, ip, #282624	; 0x45000
   12260:	e5bcfea4 	ldr	pc, [ip, #3748]!	; 0xea4

00012264 <sprintf@plt>:
   12264:	e28fc600 	add	ip, pc, #0, 12
   12268:	e28cca45 	add	ip, ip, #282624	; 0x45000
   1226c:	e5bcfe9c 	ldr	pc, [ip, #3740]!	; 0xe9c

00012270 <socket@plt>:
   12270:	e28fc600 	add	ip, pc, #0, 12
   12274:	e28cca45 	add	ip, ip, #282624	; 0x45000
   12278:	e5bcfe94 	ldr	pc, [ip, #3732]!	; 0xe94

0001227c <pthread_cancel@plt>:
   1227c:	e28fc600 	add	ip, pc, #0, 12
   12280:	e28cca45 	add	ip, ip, #282624	; 0x45000
   12284:	e5bcfe8c 	ldr	pc, [ip, #3724]!	; 0xe8c

00012288 <pthread_mutex_unlock@plt>:
   12288:	e28fc600 	add	ip, pc, #0, 12
   1228c:	e28cca45 	add	ip, ip, #282624	; 0x45000
   12290:	e5bcfe84 	ldr	pc, [ip, #3716]!	; 0xe84

00012294 <raise@plt>:
   12294:	e28fc600 	add	ip, pc, #0, 12
   12298:	e28cca45 	add	ip, ip, #282624	; 0x45000
   1229c:	e5bcfe7c 	ldr	pc, [ip, #3708]!	; 0xe7c

000122a0 <sem_post@plt>:
   122a0:	e28fc600 	add	ip, pc, #0, 12
   122a4:	e28cca45 	add	ip, ip, #282624	; 0x45000
   122a8:	e5bcfe74 	ldr	pc, [ip, #3700]!	; 0xe74

000122ac <timer_gettime@plt>:
   122ac:	e28fc600 	add	ip, pc, #0, 12
   122b0:	e28cca45 	add	ip, ip, #282624	; 0x45000
   122b4:	e5bcfe6c 	ldr	pc, [ip, #3692]!	; 0xe6c

000122b8 <strcmp@plt>:
   122b8:	e28fc600 	add	ip, pc, #0, 12
   122bc:	e28cca45 	add	ip, ip, #282624	; 0x45000
   122c0:	e5bcfe64 	ldr	pc, [ip, #3684]!	; 0xe64

000122c4 <accept@plt>:
   122c4:	e28fc600 	add	ip, pc, #0, 12
   122c8:	e28cca45 	add	ip, ip, #282624	; 0x45000
   122cc:	e5bcfe5c 	ldr	pc, [ip, #3676]!	; 0xe5c

000122d0 <free@plt>:
   122d0:	e28fc600 	add	ip, pc, #0, 12
   122d4:	e28cca45 	add	ip, ip, #282624	; 0x45000
   122d8:	e5bcfe54 	ldr	pc, [ip, #3668]!	; 0xe54

000122dc <listen@plt>:
   122dc:	e28fc600 	add	ip, pc, #0, 12
   122e0:	e28cca45 	add	ip, ip, #282624	; 0x45000
   122e4:	e5bcfe4c 	ldr	pc, [ip, #3660]!	; 0xe4c

000122e8 <printf@plt>:
   122e8:	e28fc600 	add	ip, pc, #0, 12
   122ec:	e28cca45 	add	ip, ip, #282624	; 0x45000
   122f0:	e5bcfe44 	ldr	pc, [ip, #3652]!	; 0xe44

000122f4 <pthread_cond_wait@plt>:
   122f4:	e28fc600 	add	ip, pc, #0, 12
   122f8:	e28cca45 	add	ip, ip, #282624	; 0x45000
   122fc:	e5bcfe3c 	ldr	pc, [ip, #3644]!	; 0xe3c

00012300 <popen@plt>:
   12300:	e28fc600 	add	ip, pc, #0, 12
   12304:	e28cca45 	add	ip, ip, #282624	; 0x45000
   12308:	e5bcfe34 	ldr	pc, [ip, #3636]!	; 0xe34

0001230c <puts@plt>:
   1230c:	e28fc600 	add	ip, pc, #0, 12
   12310:	e28cca45 	add	ip, ip, #282624	; 0x45000
   12314:	e5bcfe2c 	ldr	pc, [ip, #3628]!	; 0xe2c

00012318 <sem_getvalue@plt>:
   12318:	e28fc600 	add	ip, pc, #0, 12
   1231c:	e28cca45 	add	ip, ip, #282624	; 0x45000
   12320:	e5bcfe24 	ldr	pc, [ip, #3620]!	; 0xe24

00012324 <signal@plt>:
   12324:	e28fc600 	add	ip, pc, #0, 12
   12328:	e28cca45 	add	ip, ip, #282624	; 0x45000
   1232c:	e5bcfe1c 	ldr	pc, [ip, #3612]!	; 0xe1c

00012330 <pthread_attr_getschedparam@plt>:
   12330:	e28fc600 	add	ip, pc, #0, 12
   12334:	e28cca45 	add	ip, ip, #282624	; 0x45000
   12338:	e5bcfe14 	ldr	pc, [ip, #3604]!	; 0xe14

0001233c <pthread_yield@plt>:
   1233c:	e28fc600 	add	ip, pc, #0, 12
   12340:	e28cca45 	add	ip, ip, #282624	; 0x45000
   12344:	e5bcfe0c 	ldr	pc, [ip, #3596]!	; 0xe0c

00012348 <strcpy@plt>:
   12348:	e28fc600 	add	ip, pc, #0, 12
   1234c:	e28cca45 	add	ip, ip, #282624	; 0x45000
   12350:	e5bcfe04 	ldr	pc, [ip, #3588]!	; 0xe04

00012354 <__deregister_frame_info@plt>:
   12354:	e28fc600 	add	ip, pc, #0, 12
   12358:	e28cca45 	add	ip, ip, #282624	; 0x45000
   1235c:	e5bcfdfc 	ldr	pc, [ip, #3580]!	; 0xdfc

00012360 <sem_wait@plt>:
   12360:	e28fc600 	add	ip, pc, #0, 12
   12364:	e28cca45 	add	ip, ip, #282624	; 0x45000
   12368:	e5bcfdf4 	ldr	pc, [ip, #3572]!	; 0xdf4

0001236c <pthread_join@plt>:
   1236c:	e28fc600 	add	ip, pc, #0, 12
   12370:	e28cca45 	add	ip, ip, #282624	; 0x45000
   12374:	e5bcfdec 	ldr	pc, [ip, #3564]!	; 0xdec

Disassembly of section .text:

00012378 <main>:


#ifndef CONFIG_LINUX_BLE_STACK_LIB
int main(int argc,char * argv[])
//int atbm_ble_start(void)
{
   12378:	e92d4073 	push	{r0, r1, r4, r5, r6, lr}
   1237c:	e59f60a8 	ldr	r6, [pc, #168]	; 1242c <main+0xb4>

	if(argc > 1 && argv[1]){
   12380:	e3500001 	cmp	r0, #1
{
   12384:	e08f6006 	add	r6, pc, r6
	if(argc > 1 && argv[1]){
   12388:	da000015 	ble	123e4 <main+0x6c>
   1238c:	e5914004 	ldr	r4, [r1, #4]
   12390:	e1a05001 	mov	r5, r1
   12394:	e3540000 	cmp	r4, #0
   12398:	0a000011 	beq	123e4 <main+0x6c>
		memcpy(connect_ap,argv[1],strlen(argv[1]));
   1239c:	e1a00004 	mov	r0, r4
   123a0:	ebffff3a 	bl	12090 <strlen@plt>
   123a4:	e59f3084 	ldr	r3, [pc, #132]	; 12430 <main+0xb8>
   123a8:	e1a01004 	mov	r1, r4
   123ac:	e7963003 	ldr	r3, [r6, r3]
   123b0:	e58d3004 	str	r3, [sp, #4]
   123b4:	e1a02000 	mov	r2, r0
   123b8:	e1a00003 	mov	r0, r3
   123bc:	ebffff0f 	bl	12000 <memcpy@plt>
		printf("connect_ap file: %s ,%s,%d\n",connect_ap,argv[1],strlen(argv[1]));
   123c0:	e5954004 	ldr	r4, [r5, #4]
   123c4:	e1a00004 	mov	r0, r4
   123c8:	ebffff30 	bl	12090 <strlen@plt>
   123cc:	e1a02004 	mov	r2, r4
   123d0:	e59d1004 	ldr	r1, [sp, #4]
   123d4:	e1a03000 	mov	r3, r0
   123d8:	e59f0054 	ldr	r0, [pc, #84]	; 12434 <main+0xbc>
   123dc:	e08f0000 	add	r0, pc, r0
   123e0:	ebffffc0 	bl	122e8 <printf@plt>
	}
	iot_printf("======>>atbm_ble_start>>>\n");
   123e4:	e59f004c 	ldr	r0, [pc, #76]	; 12438 <main+0xc0>
   123e8:	e08f0000 	add	r0, pc, r0
   123ec:	ebffffc6 	bl	1230c <puts@plt>
	nimble_main();
   123f0:	eb006ddf 	bl	2db74 <nimble_main>
	//atbm_startconfig cmd
	atcmd_init_ble();
   123f4:	eb006dcf 	bl	2db38 <atcmd_init_ble>
	//
	hif_ioctl_init();
   123f8:	eb0072a2 	bl	2ee88 <hif_ioctl_init>
	//
	ble_hs_sched_start();
   123fc:	eb003e42 	bl	21d0c <ble_hs_sched_start>
	iot_printf("hif_ioctl_loop\n");
   12400:	e59f0034 	ldr	r0, [pc, #52]	; 1243c <main+0xc4>
   12404:	e08f0000 	add	r0, pc, r0
   12408:	ebffffbf 	bl	1230c <puts@plt>
	//start ioctl to wifi driver
	hif_ioctl_loop();
   1240c:	eb0072da 	bl	2ef7c <hif_ioctl_loop>
	iot_printf("ble_hs_hci_cmd_reset\n");
   12410:	e59f0028 	ldr	r0, [pc, #40]	; 12440 <main+0xc8>
   12414:	e08f0000 	add	r0, pc, r0
   12418:	ebffffbb 	bl	1230c <puts@plt>
	nimble_release();
   1241c:	eb006de4 	bl	2dbb4 <nimble_release>
	//reset LL BLE when quit
	//ble_hs_hci_cmd_reset();
	return 0;
}
   12420:	e3a00000 	mov	r0, #0
   12424:	e28dd008 	add	sp, sp, #8
   12428:	e8bd8070 	pop	{r4, r5, r6, pc}
   1242c:	00045c74 	.word	0x00045c74
   12430:	00000168 	.word	0x00000168
   12434:	0002fa67 	.word	0x0002fa67
   12438:	0002fa1d 	.word	0x0002fa1d
   1243c:	0002fa1b 	.word	0x0002fa1b
   12440:	0002fa1a 	.word	0x0002fa1a

00012444 <_start>:
   12444:	e3a0b000 	mov	fp, #0
   12448:	e3a0e000 	mov	lr, #0
   1244c:	e49d1004 	pop	{r1}		; (ldr r1, [sp], #4)
   12450:	e1a0200d 	mov	r2, sp
   12454:	e52d2004 	push	{r2}		; (str r2, [sp, #-4]!)
   12458:	e52d0004 	push	{r0}		; (str r0, [sp, #-4]!)
   1245c:	e59fc010 	ldr	ip, [pc, #16]	; 12474 <_start+0x30>
   12460:	e52dc004 	push	{ip}		; (str ip, [sp, #-4]!)
   12464:	e59f000c 	ldr	r0, [pc, #12]	; 12478 <_start+0x34>
   12468:	e59f300c 	ldr	r3, [pc, #12]	; 1247c <_start+0x38>
   1246c:	eaffff01 	b	12078 <__uClibc_main@plt>
   12470:	ebffff75 	bl	1224c <abort@plt>
   12474:	0003f4c4 	.word	0x0003f4c4
   12478:	00012378 	.word	0x00012378
   1247c:	00011f4c 	.word	0x00011f4c

00012480 <deregister_tm_clones>:
   12480:	e59f001c 	ldr	r0, [pc, #28]	; 124a4 <deregister_tm_clones+0x24>
   12484:	e59f301c 	ldr	r3, [pc, #28]	; 124a8 <deregister_tm_clones+0x28>
   12488:	e0603003 	rsb	r3, r0, r3
   1248c:	e3530006 	cmp	r3, #6
   12490:	912fff1e 	bxls	lr
   12494:	e59f3010 	ldr	r3, [pc, #16]	; 124ac <deregister_tm_clones+0x2c>
   12498:	e3530000 	cmp	r3, #0
   1249c:	012fff1e 	bxeq	lr
   124a0:	e12fff13 	bx	r3
   124a4:	00058bc8 	.word	0x00058bc8
   124a8:	00058bcb 	.word	0x00058bcb
   124ac:	00000000 	.word	0x00000000

000124b0 <register_tm_clones>:
   124b0:	e59f0024 	ldr	r0, [pc, #36]	; 124dc <register_tm_clones+0x2c>
   124b4:	e59f1024 	ldr	r1, [pc, #36]	; 124e0 <register_tm_clones+0x30>
   124b8:	e0601001 	rsb	r1, r0, r1
   124bc:	e1a01141 	asr	r1, r1, #2
   124c0:	e0811fa1 	add	r1, r1, r1, lsr #31
   124c4:	e1b010c1 	asrs	r1, r1, #1
   124c8:	012fff1e 	bxeq	lr
   124cc:	e59f3010 	ldr	r3, [pc, #16]	; 124e4 <register_tm_clones+0x34>
   124d0:	e3530000 	cmp	r3, #0
   124d4:	012fff1e 	bxeq	lr
   124d8:	e12fff13 	bx	r3
   124dc:	00058bc8 	.word	0x00058bc8
   124e0:	00058bc8 	.word	0x00058bc8
   124e4:	00000000 	.word	0x00000000

000124e8 <__do_global_dtors_aux>:
   124e8:	e59f3034 	ldr	r3, [pc, #52]	; 12524 <__do_global_dtors_aux+0x3c>
   124ec:	e5d32000 	ldrb	r2, [r3]
   124f0:	e3520000 	cmp	r2, #0
   124f4:	112fff1e 	bxne	lr
   124f8:	e92d4010 	push	{r4, lr}
   124fc:	e1a04003 	mov	r4, r3
   12500:	ebffffde 	bl	12480 <deregister_tm_clones>
   12504:	e59f301c 	ldr	r3, [pc, #28]	; 12528 <__do_global_dtors_aux+0x40>
   12508:	e3530000 	cmp	r3, #0
   1250c:	0a000001 	beq	12518 <__do_global_dtors_aux+0x30>
   12510:	e59f0014 	ldr	r0, [pc, #20]	; 1252c <__do_global_dtors_aux+0x44>
   12514:	ebffff8e 	bl	12354 <__deregister_frame_info@plt>
   12518:	e3a03001 	mov	r3, #1
   1251c:	e5c43000 	strb	r3, [r4]
   12520:	e8bd8010 	pop	{r4, pc}
   12524:	00058bc8 	.word	0x00058bc8
   12528:	00000000 	.word	0x00000000
   1252c:	00046398 	.word	0x00046398

00012530 <frame_dummy>:
   12530:	e59f303c 	ldr	r3, [pc, #60]	; 12574 <frame_dummy+0x44>
   12534:	e92d4010 	push	{r4, lr}
   12538:	e3530000 	cmp	r3, #0
   1253c:	0a000002 	beq	1254c <frame_dummy+0x1c>
   12540:	e59f1030 	ldr	r1, [pc, #48]	; 12578 <frame_dummy+0x48>
   12544:	e59f0030 	ldr	r0, [pc, #48]	; 1257c <frame_dummy+0x4c>
   12548:	ebfffe91 	bl	11f94 <__register_frame_info@plt>
   1254c:	e59f002c 	ldr	r0, [pc, #44]	; 12580 <frame_dummy+0x50>
   12550:	e5903000 	ldr	r3, [r0]
   12554:	e3530000 	cmp	r3, #0
   12558:	0a000003 	beq	1256c <frame_dummy+0x3c>
   1255c:	e59f3020 	ldr	r3, [pc, #32]	; 12584 <frame_dummy+0x54>
   12560:	e3530000 	cmp	r3, #0
   12564:	0a000000 	beq	1256c <frame_dummy+0x3c>
   12568:	e12fff33 	blx	r3
   1256c:	e8bd4010 	pop	{r4, lr}
   12570:	eaffffce 	b	124b0 <register_tm_clones>
   12574:	00000000 	.word	0x00000000
   12578:	00058bcc 	.word	0x00058bcc
   1257c:	00046398 	.word	0x00046398
   12580:	00056828 	.word	0x00056828
   12584:	00000000 	.word	0x00000000

00012588 <ble_npl_hw_enter_critical>:

static pthread_mutex_t s_mutex = PTHREAD_RECURSIVE_MUTEX_INITIALIZER_NP;

uint32_t ble_npl_hw_enter_critical(void)
{
    pthread_mutex_lock(&s_mutex);
   12588:	e59f0010 	ldr	r0, [pc, #16]	; 125a0 <ble_npl_hw_enter_critical+0x18>
{
   1258c:	e92d4010 	push	{r4, lr}
    pthread_mutex_lock(&s_mutex);
   12590:	e08f0000 	add	r0, pc, r0
   12594:	ebfffec0 	bl	1209c <pthread_mutex_lock@plt>
    return 0;
}
   12598:	e3a00000 	mov	r0, #0
   1259c:	e8bd8010 	pop	{r4, pc}
   125a0:	00045d04 	.word	0x00045d04

000125a4 <ble_npl_hw_exit_critical>:

void ble_npl_hw_exit_critical(uint32_t ctx)
{
    pthread_mutex_unlock(&s_mutex);
   125a4:	e59f0004 	ldr	r0, [pc, #4]	; 125b0 <ble_npl_hw_exit_critical+0xc>
   125a8:	e08f0000 	add	r0, pc, r0
   125ac:	eaffff35 	b	12288 <pthread_mutex_unlock@plt>
   125b0:	00045cec 	.word	0x00045cec

000125b4 <ble_npl_time_get>:
/**
 * Return ticks [ms] since system start as uint32_t.
 */
ble_npl_time_t
ble_npl_time_get(void)
{
   125b4:	e92d4037 	push	{r0, r1, r2, r4, r5, lr}
    struct timespec now;
    if (clock_gettime(CLOCK_MONOTONIC, &now)) {
   125b8:	e3a00001 	mov	r0, #1
   125bc:	e1a0100d 	mov	r1, sp
   125c0:	ebfffe82 	bl	11fd0 <clock_gettime@plt>
   125c4:	e3500000 	cmp	r0, #0
        return 0;
   125c8:	13a00000 	movne	r0, #0
    if (clock_gettime(CLOCK_MONOTONIC, &now)) {
   125cc:	1a000011 	bne	12618 <ble_npl_time_get+0x64>
    }
    return now.tv_sec * 1000.0 + now.tv_nsec / 1000000.0;
   125d0:	e59d0000 	ldr	r0, [sp]
   125d4:	eb00b24e 	bl	3ef14 <__aeabi_i2d>
   125d8:	e3a02000 	mov	r2, #0
   125dc:	e59f303c 	ldr	r3, [pc, #60]	; 12620 <ble_npl_time_get+0x6c>
   125e0:	eb00b282 	bl	3eff0 <__aeabi_dmul>
   125e4:	e1a04000 	mov	r4, r0
   125e8:	e59d0004 	ldr	r0, [sp, #4]
   125ec:	e1a05001 	mov	r5, r1
   125f0:	eb00b247 	bl	3ef14 <__aeabi_i2d>
   125f4:	e3a02000 	mov	r2, #0
   125f8:	e59f3024 	ldr	r3, [pc, #36]	; 12624 <ble_npl_time_get+0x70>
   125fc:	eb00b316 	bl	3f25c <__aeabi_ddiv>
   12600:	e1a02000 	mov	r2, r0
   12604:	e1a03001 	mov	r3, r1
   12608:	e1a00004 	mov	r0, r4
   1260c:	e1a01005 	mov	r1, r5
   12610:	eb00b18b 	bl	3ec44 <__adddf3>
   12614:	eb00b391 	bl	3f460 <__aeabi_d2uiz>
}
   12618:	e28dd00c 	add	sp, sp, #12
   1261c:	e8bd8030 	pop	{r4, r5, pc}
   12620:	408f4000 	.word	0x408f4000
   12624:	412e8480 	.word	0x412e8480

00012628 <ble_npl_time_ms_to_ticks>:
   12628:	e5810000 	str	r0, [r1]
   1262c:	e3a00000 	mov	r0, #0
   12630:	e12fff1e 	bx	lr

00012634 <ble_npl_time_ticks_to_ms>:
}


ble_npl_error_t ble_npl_time_ticks_to_ms(ble_npl_time_t ticks, uint32_t *out_ms)
{
    *out_ms = ticks;
   12634:	e5810000 	str	r0, [r1]

    return BLE_NPL_OK;
}
   12638:	e3a00000 	mov	r0, #0
   1263c:	e12fff1e 	bx	lr

00012640 <ble_npl_time_ms_to_ticks32>:
   12640:	e12fff1e 	bx	lr

00012644 <ble_npl_time_ticks_to_ms32>:
}

uint32_t ble_npl_time_ticks_to_ms32(ble_npl_time_t ticks)
{
    return ticks;
}
   12644:	e12fff1e 	bx	lr

00012648 <ble_npl_time_delay>:

void ble_npl_time_delay(ble_npl_time_t ticks)
{
   12648:	e92d4013 	push	{r0, r1, r4, lr}
    struct timespec sleep_time;
    long ms = ble_npl_time_ticks_to_ms32(ticks);
   1264c:	ebfffffc 	bl	12644 <ble_npl_time_ticks_to_ms32>
    uint32_t s = ms / 1000;
   12650:	e3a01ffa 	mov	r1, #1000	; 0x3e8
    long ms = ble_npl_time_ticks_to_ms32(ticks);
   12654:	e1a04000 	mov	r4, r0
    uint32_t s = ms / 1000;
   12658:	eb00b137 	bl	3eb3c <__divsi3>

    ms -= s * 1000;
    sleep_time.tv_sec = s;
    sleep_time.tv_nsec = ms * 1000000;
   1265c:	e3a03ffa 	mov	r3, #1000	; 0x3e8
    sleep_time.tv_sec = s;
   12660:	e58d0000 	str	r0, [sp]
    sleep_time.tv_nsec = ms * 1000000;
   12664:	e0000093 	mul	r0, r3, r0
   12668:	e59f3038 	ldr	r3, [pc, #56]	; 126a8 <ble_npl_time_delay+0x60>
   1266c:	e0600004 	rsb	r0, r0, r4
   12670:	e0000093 	mul	r0, r3, r0

	while((-1 == nanosleep(&sleep_time,&sleep_time))&&(EINTR == errno));
   12674:	e1a0400d 	mov	r4, sp
    sleep_time.tv_nsec = ms * 1000000;
   12678:	e58d0004 	str	r0, [sp, #4]
	while((-1 == nanosleep(&sleep_time,&sleep_time))&&(EINTR == errno));
   1267c:	e1a01004 	mov	r1, r4
   12680:	e1a00004 	mov	r0, r4
   12684:	ebfffeed 	bl	12240 <nanosleep@plt>
   12688:	e3700001 	cmn	r0, #1
   1268c:	1a000003 	bne	126a0 <ble_npl_time_delay+0x58>
   12690:	ebfffe48 	bl	11fb8 <__errno_location@plt>
   12694:	e5903000 	ldr	r3, [r0]
   12698:	e3530004 	cmp	r3, #4
   1269c:	0afffff6 	beq	1267c <ble_npl_time_delay+0x34>
}
   126a0:	e28dd008 	add	sp, sp, #8
   126a4:	e8bd8010 	pop	{r4, pc}
   126a8:	000f4240 	.word	0x000f4240

000126ac <ble_npl_mutex_init>:
#include "nimble/nimble_npl.h"

ble_npl_error_t
ble_npl_mutex_init(struct ble_npl_mutex *mu)
{
    if (!mu) {
   126ac:	e3500000 	cmp	r0, #0
   126b0:	0a00000c 	beq	126e8 <ble_npl_mutex_init+0x3c>
{
   126b4:	e92d4070 	push	{r4, r5, r6, lr}
        return BLE_NPL_INVALID_PARAM;
    }

    pthread_mutexattr_init(&mu->attr);
   126b8:	e2805018 	add	r5, r0, #24
   126bc:	e1a04000 	mov	r4, r0
   126c0:	e1a00005 	mov	r0, r5
   126c4:	ebfffeb6 	bl	121a4 <pthread_mutexattr_init@plt>
    pthread_mutexattr_settype(&mu->attr, PTHREAD_MUTEX_RECURSIVE_NP);
   126c8:	e3a01001 	mov	r1, #1
   126cc:	e1a00005 	mov	r0, r5
   126d0:	ebfffe59 	bl	1203c <pthread_mutexattr_settype@plt>
    pthread_mutex_init(&mu->lock, &mu->attr);
   126d4:	e1a01005 	mov	r1, r5
   126d8:	e1a00004 	mov	r0, r4
   126dc:	ebfffe53 	bl	12030 <pthread_mutex_init@plt>

    return BLE_NPL_OK;
   126e0:	e3a00000 	mov	r0, #0
   126e4:	e8bd8070 	pop	{r4, r5, r6, pc}
        return BLE_NPL_INVALID_PARAM;
   126e8:	e3a00003 	mov	r0, #3
   126ec:	e12fff1e 	bx	lr

000126f0 <ble_npl_mutex_free>:
}
ble_npl_error_t
ble_npl_mutex_free(struct ble_npl_mutex* mu)
{
    return 0;//npl_atbmos_mutex_free(mu);
}
   126f0:	e3a00000 	mov	r0, #0
   126f4:	e12fff1e 	bx	lr

000126f8 <ble_npl_mutex_release>:
ble_npl_error_t
ble_npl_mutex_release(struct ble_npl_mutex *mu)
{
    if (!mu) {
   126f8:	e3500000 	cmp	r0, #0
   126fc:	0a000005 	beq	12718 <ble_npl_mutex_release+0x20>
{
   12700:	e92d4010 	push	{r4, lr}
        return BLE_NPL_INVALID_PARAM;
    }

    if (pthread_mutex_unlock(&mu->lock)) {
   12704:	ebfffedf 	bl	12288 <pthread_mutex_unlock@plt>
        return BLE_NPL_BAD_MUTEX;
    }

    return BLE_NPL_OK;
   12708:	e3500000 	cmp	r0, #0
   1270c:	13a00005 	movne	r0, #5
   12710:	03a00000 	moveq	r0, #0
   12714:	e8bd8010 	pop	{r4, pc}
        return BLE_NPL_INVALID_PARAM;
   12718:	e3a00003 	mov	r0, #3
   1271c:	e12fff1e 	bx	lr

00012720 <ble_npl_mutex_pend>:
}

ble_npl_error_t
ble_npl_mutex_pend(struct ble_npl_mutex *mu, uint32_t timeout)
{
   12720:	e92d4070 	push	{r4, r5, r6, lr}
    int err;

    if (!mu) {
   12724:	e2504000 	subs	r4, r0, #0
   12728:	0a000021 	beq	127b4 <ble_npl_mutex_pend+0x94>
        return BLE_NPL_INVALID_PARAM;
    }

    if (timeout == BLE_NPL_TIME_FOREVER) {
   1272c:	e3710106 	cmn	r1, #-2147483647	; 0x80000001
   12730:	e1a05001 	mov	r5, r1
   12734:	1a000001 	bne	12740 <ble_npl_mutex_pend+0x20>
        err = pthread_mutex_lock(&mu->lock);
   12738:	ebfffe57 	bl	1209c <pthread_mutex_lock@plt>
   1273c:	ea000019 	b	127a8 <ble_npl_mutex_pend+0x88>
    } else {
        err = clock_gettime(CLOCK_REALTIME, &mu->wait);
   12740:	e284601c 	add	r6, r4, #28
   12744:	e1a01006 	mov	r1, r6
   12748:	e3a00000 	mov	r0, #0
   1274c:	ebfffe1f 	bl	11fd0 <clock_gettime@plt>
        if (err) {
   12750:	e3500000 	cmp	r0, #0
   12754:	0a000001 	beq	12760 <ble_npl_mutex_pend+0x40>
            return BLE_NPL_ERROR;
   12758:	e3a0000c 	mov	r0, #12
   1275c:	e8bd8070 	pop	{r4, r5, r6, pc}
        }

        mu->wait.tv_sec  += timeout / 1000;
   12760:	e3a01ffa 	mov	r1, #1000	; 0x3e8
   12764:	e1a00005 	mov	r0, r5
   12768:	eb00b0c1 	bl	3ea74 <__udivsi3>
   1276c:	e594301c 	ldr	r3, [r4, #28]
        mu->wait.tv_nsec += (timeout % 1000) * 1000000;
   12770:	e3a01ffa 	mov	r1, #1000	; 0x3e8
        mu->wait.tv_sec  += timeout / 1000;
   12774:	e0830000 	add	r0, r3, r0
   12778:	e584001c 	str	r0, [r4, #28]
        mu->wait.tv_nsec += (timeout % 1000) * 1000000;
   1277c:	e1a00005 	mov	r0, r5
   12780:	eb00b0e5 	bl	3eb1c <__aeabi_uidivmod>
   12784:	e5942020 	ldr	r2, [r4, #32]
   12788:	e59f3034 	ldr	r3, [pc, #52]	; 127c4 <ble_npl_mutex_pend+0xa4>

        err = pthread_mutex_timedlock(&mu->lock, &mu->wait);
   1278c:	e1a00004 	mov	r0, r4
        mu->wait.tv_nsec += (timeout % 1000) * 1000000;
   12790:	e0212193 	mla	r1, r3, r1, r2
   12794:	e5841020 	str	r1, [r4, #32]
        err = pthread_mutex_timedlock(&mu->lock, &mu->wait);
   12798:	e1a01006 	mov	r1, r6
   1279c:	ebfffe5c 	bl	12114 <pthread_mutex_timedlock@plt>
        if (err == ETIMEDOUT) {
   127a0:	e350006e 	cmp	r0, #110	; 0x6e
   127a4:	0a000004 	beq	127bc <ble_npl_mutex_pend+0x9c>
            return BLE_NPL_TIMEOUT;
        }
    }

    return (err) ? BLE_NPL_ERROR : BLE_NPL_OK;
   127a8:	e3500000 	cmp	r0, #0
   127ac:	1affffe9 	bne	12758 <ble_npl_mutex_pend+0x38>
   127b0:	e8bd8070 	pop	{r4, r5, r6, pc}
        return BLE_NPL_INVALID_PARAM;
   127b4:	e3a00003 	mov	r0, #3
   127b8:	e8bd8070 	pop	{r4, r5, r6, pc}
            return BLE_NPL_TIMEOUT;
   127bc:	e3a00006 	mov	r0, #6
}
   127c0:	e8bd8070 	pop	{r4, r5, r6, pc}
   127c4:	000f4240 	.word	0x000f4240

000127c8 <ble_npl_callout_timer_cb>:

static void
ble_npl_callout_timer_cb(union sigval sv)
{
    struct ble_npl_callout *c = (struct ble_npl_callout *)sv.sival_ptr;
    assert(c);
   127c8:	e2501000 	subs	r1, r0, #0
   127cc:	1a000008 	bne	127f4 <ble_npl_callout_timer_cb+0x2c>
   127d0:	e59f3040 	ldr	r3, [pc, #64]	; 12818 <ble_npl_callout_timer_cb+0x50>
   127d4:	e59f1040 	ldr	r1, [pc, #64]	; 1281c <ble_npl_callout_timer_cb+0x54>
   127d8:	e59f0040 	ldr	r0, [pc, #64]	; 12820 <ble_npl_callout_timer_cb+0x58>
{
   127dc:	e92d4010 	push	{r4, lr}
    assert(c);
   127e0:	e08f3003 	add	r3, pc, r3
   127e4:	e3a02022 	mov	r2, #34	; 0x22
   127e8:	e08f1001 	add	r1, pc, r1
   127ec:	e08f0000 	add	r0, pc, r0
   127f0:	ebfffe3e 	bl	120f0 <__assert@plt>

	c->c_active = false;
   127f4:	e3a03000 	mov	r3, #0
   127f8:	e5c13018 	strb	r3, [r1, #24]

    if (c->c_evq) {
   127fc:	e591300c 	ldr	r3, [r1, #12]
   12800:	e3530000 	cmp	r3, #0
   12804:	0a000001 	beq	12810 <ble_npl_callout_timer_cb+0x48>
        ble_npl_eventq_put(c->c_evq, &c->c_ev);
   12808:	e1a00003 	mov	r0, r3
   1280c:	ea0008c7 	b	14b30 <ble_npl_eventq_put>
    } else {
        c->c_ev.ev_cb(&c->c_ev);
   12810:	e5913004 	ldr	r3, [r1, #4]
   12814:	e12fff13 	bx	r3
   12818:	0002ccec 	.word	0x0002ccec
   1281c:	0002ccfd 	.word	0x0002ccfd
   12820:	0002f2a2 	.word	0x0002f2a2

00012824 <ble_npl_callout_free>:
    }
}
void ble_npl_callout_free(struct ble_npl_callout* co)
{
   12824:	e12fff1e 	bx	lr

00012828 <ble_npl_callout_init>:

void ble_npl_callout_init(struct ble_npl_callout *c, 
                          struct ble_npl_eventq *evq,
                          ble_npl_event_fn *ev_cb, 
                          void *ev_arg)
{
   12828:	e92d40f0 	push	{r4, r5, r6, r7, lr}
   1282c:	e1a05001 	mov	r5, r1
   12830:	e24dd044 	sub	sp, sp, #68	; 0x44
   12834:	e1a07002 	mov	r7, r2
    struct sigevent         event;

    /* Initialize the callout. */
    memset(c, 0, sizeof(*c));
   12838:	e3a01000 	mov	r1, #0
   1283c:	e3a0201c 	mov	r2, #28
{
   12840:	e1a04000 	mov	r4, r0
   12844:	e1a06003 	mov	r6, r3
    memset(c, 0, sizeof(*c));
   12848:	ebfffe76 	bl	12228 <memset@plt>
    c->c_ev.ev_cb = ev_cb;
    c->c_ev.ev_arg = ev_arg;
    c->c_evq = evq;
    c->c_active = false;

    event.sigev_notify = SIGEV_THREAD;
   1284c:	e3a03002 	mov	r3, #2
   12850:	e58d3008 	str	r3, [sp, #8]
    event.sigev_value.sival_ptr = c;     // put callout obj in signal args
    event.sigev_notify_function = ble_npl_callout_timer_cb;
   12854:	e59f3034 	ldr	r3, [pc, #52]	; 12890 <ble_npl_callout_init+0x68>
    c->c_active = false;
   12858:	e3a00000 	mov	r0, #0
    event.sigev_notify_function = ble_npl_callout_timer_cb;
   1285c:	e08f3003 	add	r3, pc, r3
    c->c_ev.ev_cb = ev_cb;
   12860:	e5847004 	str	r7, [r4, #4]
    c->c_ev.ev_arg = ev_arg;
   12864:	e5846008 	str	r6, [r4, #8]
    c->c_evq = evq;
   12868:	e584500c 	str	r5, [r4, #12]
    c->c_active = false;
   1286c:	e5c40018 	strb	r0, [r4, #24]
    event.sigev_notify_attributes = NULL;

    timer_create(CLOCK_REALTIME, &event, &c->c_timer);
   12870:	e2842014 	add	r2, r4, #20
   12874:	e1a0100d 	mov	r1, sp
    event.sigev_value.sival_ptr = c;     // put callout obj in signal args
   12878:	e58d4000 	str	r4, [sp]
    event.sigev_notify_function = ble_npl_callout_timer_cb;
   1287c:	e58d300c 	str	r3, [sp, #12]
    event.sigev_notify_attributes = NULL;
   12880:	e58d0010 	str	r0, [sp, #16]
    timer_create(CLOCK_REALTIME, &event, &c->c_timer);
   12884:	ebfffe40 	bl	1218c <timer_create@plt>
}
   12888:	e28dd044 	add	sp, sp, #68	; 0x44
   1288c:	e8bd80f0 	pop	{r4, r5, r6, r7, pc}
   12890:	ffffff64 	.word	0xffffff64

00012894 <ble_npl_callout_is_active>:
bool ble_npl_callout_is_active(struct ble_npl_callout *c)
{
    // TODO: seek native posix method to determine whether timer_t is active.
    // TODO: fix bug where one-shot timer is still active after fired.
    return c->c_active;
}
   12894:	e5d00018 	ldrb	r0, [r0, #24]
   12898:	e12fff1e 	bx	lr

0001289c <ble_npl_callout_inited>:

int ble_npl_callout_inited(struct ble_npl_callout *c)
{
    return (c->c_timer != NULL);
   1289c:	e5900014 	ldr	r0, [r0, #20]
}
   128a0:	e2900000 	adds	r0, r0, #0
   128a4:	13a00001 	movne	r0, #1
   128a8:	e12fff1e 	bx	lr

000128ac <ble_npl_callout_reset>:

ble_npl_error_t ble_npl_callout_reset(struct ble_npl_callout *c,
				      ble_npl_time_t ticks)
{
   128ac:	e92d407f 	push	{r0, r1, r2, r3, r4, r5, r6, lr}
    if (ticks < 0) {
        return BLE_NPL_EINVAL;
    }

    if (ticks == 0) {
        ticks = 1;
   128b0:	e3510000 	cmp	r1, #0
   128b4:	11a06001 	movne	r6, r1
   128b8:	03a06001 	moveq	r6, #1
{
   128bc:	e1a05000 	mov	r5, r0
    }

    c->c_ticks = ble_npl_time_get() + ticks;
   128c0:	ebffff3b 	bl	125b4 <ble_npl_time_get>

    its.it_interval.tv_sec = 0;
   128c4:	e3a04000 	mov	r4, #0
    its.it_interval.tv_nsec = 0;                     // one shot
    its.it_value.tv_sec = (ticks / 1000);
   128c8:	e3a01ffa 	mov	r1, #1000	; 0x3e8
    its.it_interval.tv_sec = 0;
   128cc:	e58d4000 	str	r4, [sp]
    its.it_interval.tv_nsec = 0;                     // one shot
   128d0:	e58d4004 	str	r4, [sp, #4]
    c->c_ticks = ble_npl_time_get() + ticks;
   128d4:	e0860000 	add	r0, r6, r0
   128d8:	e5850010 	str	r0, [r5, #16]
    its.it_value.tv_sec = (ticks / 1000);
   128dc:	e1a00006 	mov	r0, r6
   128e0:	eb00b063 	bl	3ea74 <__udivsi3>
    its.it_value.tv_nsec = (ticks % 1000) * 1000000; // expiration
   128e4:	e3a01ffa 	mov	r1, #1000	; 0x3e8
    its.it_value.tv_sec = (ticks / 1000);
   128e8:	e58d0008 	str	r0, [sp, #8]
    its.it_value.tv_nsec = (ticks % 1000) * 1000000; // expiration
   128ec:	e1a00006 	mov	r0, r6
   128f0:	eb00b089 	bl	3eb1c <__aeabi_uidivmod>
   128f4:	e59f302c 	ldr	r3, [pc, #44]	; 12928 <ble_npl_callout_reset+0x7c>
    its.it_value.tv_nsec %= 1000000000;
    c->c_active = true;
    timer_settime(c->c_timer, 0, &its, NULL);
   128f8:	e1a0200d 	mov	r2, sp
   128fc:	e5950014 	ldr	r0, [r5, #20]
    its.it_value.tv_nsec = (ticks % 1000) * 1000000; // expiration
   12900:	e0010193 	mul	r1, r3, r1
    c->c_active = true;
   12904:	e3a03001 	mov	r3, #1
    its.it_value.tv_nsec = (ticks % 1000) * 1000000; // expiration
   12908:	e58d100c 	str	r1, [sp, #12]
    c->c_active = true;
   1290c:	e5c53018 	strb	r3, [r5, #24]
    timer_settime(c->c_timer, 0, &its, NULL);
   12910:	e1a01004 	mov	r1, r4
   12914:	e1a03004 	mov	r3, r4
   12918:	ebfffd94 	bl	11f70 <timer_settime@plt>

    return BLE_NPL_OK;
}
   1291c:	e1a00004 	mov	r0, r4
   12920:	e28dd010 	add	sp, sp, #16
   12924:	e8bd8070 	pop	{r4, r5, r6, pc}
   12928:	000f4240 	.word	0x000f4240

0001292c <ble_npl_callout_queued>:

int ble_npl_callout_queued(struct ble_npl_callout *c)
{
   1292c:	e92d401f 	push	{r0, r1, r2, r3, r4, lr}
    struct itimerspec its;
    timer_gettime(c->c_timer, &its);
   12930:	e5900014 	ldr	r0, [r0, #20]
   12934:	e1a0100d 	mov	r1, sp
   12938:	ebfffe5b 	bl	122ac <timer_gettime@plt>

    return ((its.it_value.tv_sec > 0) ||
   1293c:	e59d3008 	ldr	r3, [sp, #8]
   12940:	e3530000 	cmp	r3, #0
   12944:	c3a00001 	movgt	r0, #1
   12948:	ca000003 	bgt	1295c <ble_npl_callout_queued+0x30>
   1294c:	e59d000c 	ldr	r0, [sp, #12]
   12950:	e3500000 	cmp	r0, #0
   12954:	d3a00000 	movle	r0, #0
   12958:	c3a00001 	movgt	r0, #1
            (its.it_value.tv_nsec > 0));
}
   1295c:	e28dd014 	add	sp, sp, #20
   12960:	e49df004 	pop	{pc}		; (ldr pc, [sp], #4)

00012964 <ble_npl_callout_stop>:

void ble_npl_callout_stop(struct ble_npl_callout *c)
{
   12964:	e92d4030 	push	{r4, r5, lr}
   12968:	e24dd014 	sub	sp, sp, #20
   1296c:	e1a05000 	mov	r5, r0
    if (!ble_npl_callout_inited(c)) {
   12970:	ebffffc9 	bl	1289c <ble_npl_callout_inited>
   12974:	e3500000 	cmp	r0, #0
   12978:	0a00000a 	beq	129a8 <ble_npl_callout_stop+0x44>
        return;
    }

    struct itimerspec its;
    its.it_interval.tv_sec = 0;
   1297c:	e3a04000 	mov	r4, #0
    its.it_interval.tv_nsec = 0;
    its.it_value.tv_sec = 0;
    its.it_value.tv_nsec = 0;
    timer_settime(c->c_timer, 0, &its, NULL);
   12980:	e1a03004 	mov	r3, r4
   12984:	e1a0200d 	mov	r2, sp
   12988:	e1a01004 	mov	r1, r4
   1298c:	e5950014 	ldr	r0, [r5, #20]
    its.it_interval.tv_sec = 0;
   12990:	e58d4000 	str	r4, [sp]
    its.it_interval.tv_nsec = 0;
   12994:	e58d4004 	str	r4, [sp, #4]
    its.it_value.tv_sec = 0;
   12998:	e58d4008 	str	r4, [sp, #8]
    its.it_value.tv_nsec = 0;
   1299c:	e58d400c 	str	r4, [sp, #12]
    timer_settime(c->c_timer, 0, &its, NULL);
   129a0:	ebfffd72 	bl	11f70 <timer_settime@plt>
    c->c_active = false;
   129a4:	e5c54018 	strb	r4, [r5, #24]
}
   129a8:	e28dd014 	add	sp, sp, #20
   129ac:	e8bd8030 	pop	{r4, r5, pc}

000129b0 <ble_npl_callout_get_ticks>:

ble_npl_time_t
ble_npl_callout_get_ticks(struct ble_npl_callout *co)
{
    return co->c_ticks;
}
   129b0:	e5900010 	ldr	r0, [r0, #16]
   129b4:	e12fff1e 	bx	lr

000129b8 <ble_npl_callout_set_arg>:

void
ble_npl_callout_set_arg(struct ble_npl_callout *co, void *arg)
{
    co->c_ev.ev_arg = arg;
   129b8:	e5801008 	str	r1, [r0, #8]
   129bc:	e12fff1e 	bx	lr

000129c0 <ble_npl_callout_remaining_ticks>:
}

uint32_t
ble_npl_callout_remaining_ticks(struct ble_npl_callout *co,
                                ble_npl_time_t now)
{
   129c0:	e92d401f 	push	{r0, r1, r2, r3, r4, lr}
    ble_npl_time_t rt;
    uint32_t exp;

    struct itimerspec its;
    timer_gettime(co->c_timer, &its);
   129c4:	e5900014 	ldr	r0, [r0, #20]
{
   129c8:	e1a04001 	mov	r4, r1
    timer_gettime(co->c_timer, &its);
   129cc:	e1a0100d 	mov	r1, sp
   129d0:	ebfffe35 	bl	122ac <timer_gettime@plt>

    exp = its.it_value.tv_sec * 1000;
   129d4:	e59d0008 	ldr	r0, [sp, #8]
   129d8:	e3a03ffa 	mov	r3, #1000	; 0x3e8
   129dc:	e0000093 	mul	r0, r3, r0

    if (exp > now) {
   129e0:	e1500004 	cmp	r0, r4
        rt = exp - now;
   129e4:	80640000 	rsbhi	r0, r4, r0
    } else {
        rt = 0;
   129e8:	93a00000 	movls	r0, #0
    }

    return rt;
}
   129ec:	e28dd010 	add	sp, sp, #16
   129f0:	e8bd8010 	pop	{r4, pc}

000129f4 <ble_npl_task_init>:
ble_npl_task_init(struct ble_npl_task *t, const char *name, ble_npl_task_func_t func,
        void *arg, uint8_t prio, ble_npl_time_t sanity_itvl,
        ble_npl_stack_t *stack_bottom, uint16_t stack_size)
{
    int err;
    if ((t == NULL) || (func == NULL)) {
   129f4:	e3520000 	cmp	r2, #0
   129f8:	13500000 	cmpne	r0, #0
{
   129fc:	e92d47f0 	push	{r4, r5, r6, r7, r8, r9, sl, lr}
   12a00:	e5dda020 	ldrb	sl, [sp, #32]
    if ((t == NULL) || (func == NULL)) {
   12a04:	0a000020 	beq	12a8c <ble_npl_task_init+0x98>
        return OS_INVALID_PARM;
    }

    err = pthread_attr_init(&t->attr);
   12a08:	e2805004 	add	r5, r0, #4
   12a0c:	e1a04000 	mov	r4, r0
   12a10:	e1a00005 	mov	r0, r5
   12a14:	e1a06002 	mov	r6, r2
   12a18:	e1a07003 	mov	r7, r3
   12a1c:	e1a08001 	mov	r8, r1
   12a20:	ebfffd8b 	bl	12054 <pthread_attr_init@plt>
    if (err) return err;
   12a24:	e3500000 	cmp	r0, #0
   12a28:	18bd87f0 	popne	{r4, r5, r6, r7, r8, r9, sl, pc}
    err = pthread_attr_getschedparam (&t->attr, &t->param);
   12a2c:	e2849028 	add	r9, r4, #40	; 0x28
   12a30:	e1a01009 	mov	r1, r9
   12a34:	e1a00005 	mov	r0, r5
   12a38:	ebfffe3c 	bl	12330 <pthread_attr_getschedparam@plt>
    if (err) return err;
   12a3c:	e3500000 	cmp	r0, #0
   12a40:	18bd87f0 	popne	{r4, r5, r6, r7, r8, r9, sl, pc}
    err = pthread_attr_setschedpolicy(&t->attr, SCHED_RR);
   12a44:	e3a01002 	mov	r1, #2
   12a48:	e1a00005 	mov	r0, r5
   12a4c:	ebfffdef 	bl	12210 <pthread_attr_setschedpolicy@plt>
    if (err) return err;
   12a50:	e3500000 	cmp	r0, #0
   12a54:	18bd87f0 	popne	{r4, r5, r6, r7, r8, r9, sl, pc}
    t->param.sched_priority = prio;
   12a58:	e584a028 	str	sl, [r4, #40]	; 0x28
    err = pthread_attr_setschedparam (&t->attr, &t->param);
   12a5c:	e1a01009 	mov	r1, r9
   12a60:	e1a00005 	mov	r0, r5
   12a64:	ebfffd4d 	bl	11fa0 <pthread_attr_setschedparam@plt>
    if (err) return err;
   12a68:	e3500000 	cmp	r0, #0
   12a6c:	18bd87f0 	popne	{r4, r5, r6, r7, r8, r9, sl, pc}

    t->name = name;
   12a70:	e584802c 	str	r8, [r4, #44]	; 0x2c
    err = pthread_create(&t->handle, &t->attr, func, arg);
   12a74:	e1a03007 	mov	r3, r7
   12a78:	e1a02006 	mov	r2, r6
   12a7c:	e1a01005 	mov	r1, r5
   12a80:	e1a00004 	mov	r0, r4

    return err;
}
   12a84:	e8bd47f0 	pop	{r4, r5, r6, r7, r8, r9, sl, lr}
    err = pthread_create(&t->handle, &t->attr, func, arg);
   12a88:	eafffdb3 	b	1215c <pthread_create@plt>
        return OS_INVALID_PARM;
   12a8c:	e3a00003 	mov	r0, #3
}
   12a90:	e8bd87f0 	pop	{r4, r5, r6, r7, r8, r9, sl, pc}

00012a94 <ble_npl_task_remove>:
 * NOTE: This interface is currently experimental and not ready for common use
 */
int
ble_npl_task_remove(struct ble_npl_task *t)
{
    return pthread_cancel(t->handle);
   12a94:	e5900000 	ldr	r0, [r0]
   12a98:	eafffdf7 	b	1227c <pthread_cancel@plt>

00012a9c <ble_npl_task_count>:
 */
uint8_t
ble_npl_task_count(void)
{
    return 0;
}
   12a9c:	e3a00000 	mov	r0, #0
   12aa0:	e12fff1e 	bx	lr

00012aa4 <ble_npl_get_current_task_id>:

void *
ble_npl_get_current_task_id(void)
{
    return (void *)pthread_self();
   12aa4:	eafffdc4 	b	121bc <pthread_self@plt>

00012aa8 <ble_npl_os_started>:
}

bool ble_npl_os_started(void)
{
    return true;
}
   12aa8:	e3a00001 	mov	r0, #1
   12aac:	e12fff1e 	bx	lr

00012ab0 <ble_npl_task_yield>:

void ble_npl_task_yield(void)
{
    pthread_yield();
   12ab0:	eafffe21 	b	1233c <pthread_yield@plt>

00012ab4 <atbm_createThread>:
}



pAtbm_thread_t atbm_createThread(atbm_int32(*task)(atbm_void* p_arg), atbm_void* p_arg, int prio)
{
   12ab4:	e92d40f0 	push	{r4, r5, r6, r7, lr}
   12ab8:	e1a06000 	mov	r6, r0
   12abc:	e24dd014 	sub	sp, sp, #20
    struct ble_npl_task* s_task = malloc(sizeof(struct ble_npl_task));
   12ac0:	e3a00030 	mov	r0, #48	; 0x30
{
   12ac4:	e1a07001 	mov	r7, r1
    struct ble_npl_task* s_task = malloc(sizeof(struct ble_npl_task));
   12ac8:	ebfffd67 	bl	1206c <malloc@plt>
    int err;
    if (BLE_AT_PRIO == prio)
        prio = 9;
    else
        prio = 1;
    err = ble_npl_task_init(s_task,
   12acc:	e59f1044 	ldr	r1, [pc, #68]	; 12b18 <atbm_createThread+0x64>
   12ad0:	e3a05000 	mov	r5, #0
   12ad4:	e3a03001 	mov	r3, #1
   12ad8:	e58d3000 	str	r3, [sp]
   12adc:	e58d500c 	str	r5, [sp, #12]
   12ae0:	e58d5008 	str	r5, [sp, #8]
   12ae4:	e58d5004 	str	r5, [sp, #4]
   12ae8:	e1a03007 	mov	r3, r7
   12aec:	e1a02006 	mov	r2, r6
   12af0:	e08f1001 	add	r1, pc, r1
    struct ble_npl_task* s_task = malloc(sizeof(struct ble_npl_task));
   12af4:	e1a04000 	mov	r4, r0
    err = ble_npl_task_init(s_task,
   12af8:	ebffffbd 	bl	129f4 <ble_npl_task_init>
            "s_task[0]",
        task, p_arg, 1, 0, NULL, 0);
    // SuccessOrQuit(err, "ble_npl_task_init failed.");
    if (err) {
   12afc:	e1500005 	cmp	r0, r5
        free(s_task);
   12b00:	e1a00004 	mov	r0, r4
    if (err) {
   12b04:	0a000001 	beq	12b10 <atbm_createThread+0x5c>
        free(s_task);
   12b08:	ebfffdf0 	bl	122d0 <free@plt>
        return NULL;
   12b0c:	e1a00005 	mov	r0, r5
    }
    return s_task;
}
   12b10:	e28dd014 	add	sp, sp, #20
   12b14:	e8bd80f0 	pop	{r4, r5, r6, r7, pc}
   12b18:	0002ca7d 	.word	0x0002ca7d

00012b1c <atbm_stopThread>:

int atbm_stopThread(pAtbm_thread_t thread_id)
{
   12b1c:	e92d4010 	push	{r4, lr}
   12b20:	e1a04000 	mov	r4, r0
    ble_npl_task_remove(thread_id);
   12b24:	ebffffda 	bl	12a94 <ble_npl_task_remove>
    free(thread_id);
   12b28:	e1a00004 	mov	r0, r4
   12b2c:	ebfffde7 	bl	122d0 <free@plt>
    return 0;
}
   12b30:	e3a00000 	mov	r0, #0
   12b34:	e8bd8010 	pop	{r4, pc}

00012b38 <atbm_ThreadStopEvent>:
int atbm_ThreadStopEvent(pAtbm_thread_t thread_id)
{
    return 0;
}
   12b38:	e3a00000 	mov	r0, #0
   12b3c:	e12fff1e 	bx	lr

00012b40 <atbm_changeThreadPriority>:
   12b40:	e3a00000 	mov	r0, #0
   12b44:	e12fff1e 	bx	lr

00012b48 <atbm_IncThreadPriority>:
}

int atbm_IncThreadPriority(int prio)
{
    return 0;
}
   12b48:	e3a00000 	mov	r0, #0
   12b4c:	e12fff1e 	bx	lr

00012b50 <ble_npl_sem_init>:
#include "os/os.h"
#include "nimble/nimble_npl.h"

ble_npl_error_t
ble_npl_sem_init(struct ble_npl_sem *sem, uint16_t tokens)
{
   12b50:	e92d4010 	push	{r4, lr}
	int err;

    if (!sem) {
   12b54:	e2504000 	subs	r4, r0, #0
   12b58:	0a00000f 	beq	12b9c <ble_npl_sem_init+0x4c>
   12b5c:	e1a02001 	mov	r2, r1
        return BLE_NPL_INVALID_PARAM;
    }

    err = sem_init(&sem->lock, 0, tokens);
   12b60:	e3a01000 	mov	r1, #0
   12b64:	ebfffd04 	bl	11f7c <sem_init@plt>
	assert(err == 0);
   12b68:	e3500000 	cmp	r0, #0
   12b6c:	0a000007 	beq	12b90 <ble_npl_sem_init+0x40>
   12b70:	e59f302c 	ldr	r3, [pc, #44]	; 12ba4 <ble_npl_sem_init+0x54>
   12b74:	e59f102c 	ldr	r1, [pc, #44]	; 12ba8 <ble_npl_sem_init+0x58>
   12b78:	e59f002c 	ldr	r0, [pc, #44]	; 12bac <ble_npl_sem_init+0x5c>
   12b7c:	e08f3003 	add	r3, pc, r3
   12b80:	e3a02025 	mov	r2, #37	; 0x25
   12b84:	e08f1001 	add	r1, pc, r1
   12b88:	e08f0000 	add	r0, pc, r0
   12b8c:	ebfffd57 	bl	120f0 <__assert@plt>
	sem->vaild = 1;
   12b90:	e3a03001 	mov	r3, #1
   12b94:	e5843010 	str	r3, [r4, #16]

    return BLE_NPL_OK;
   12b98:	e8bd8010 	pop	{r4, pc}
        return BLE_NPL_INVALID_PARAM;
   12b9c:	e3a00003 	mov	r0, #3
}
   12ba0:	e8bd8010 	pop	{r4, pc}
   12ba4:	0002c9fb 	.word	0x0002c9fb
   12ba8:	0002ca1a 	.word	0x0002ca1a
   12bac:	0002ca9a 	.word	0x0002ca9a

00012bb0 <ble_npl_sem_free>:
void
ble_npl_sem_free(struct ble_npl_sem* sem)
{
   12bb0:	e92d4010 	push	{r4, lr}
   12bb4:	e1a04000 	mov	r4, r0
   sem_destroy(&sem->lock);
   12bb8:	ebfffd49 	bl	120e4 <sem_destroy@plt>
   sem->vaild = 0;
   12bbc:	e3a03000 	mov	r3, #0
   12bc0:	e5843010 	str	r3, [r4, #16]
   12bc4:	e8bd8010 	pop	{r4, pc}

00012bc8 <ble_npl_sem_release>:
ble_npl_error_t
ble_npl_sem_release(struct ble_npl_sem *sem)
{
    int err;

    if (!sem) {
   12bc8:	e3500000 	cmp	r0, #0
   12bcc:	0a000005 	beq	12be8 <ble_npl_sem_release+0x20>
{
   12bd0:	e92d4010 	push	{r4, lr}
        return BLE_NPL_INVALID_PARAM;
    }

    err = sem_post(&sem->lock);
   12bd4:	ebfffdb1 	bl	122a0 <sem_post@plt>

    return (err) ? BLE_NPL_ERROR : BLE_NPL_OK;
   12bd8:	e3500000 	cmp	r0, #0
   12bdc:	13a0000c 	movne	r0, #12
   12be0:	03a00000 	moveq	r0, #0
   12be4:	e8bd8010 	pop	{r4, pc}
        return BLE_NPL_INVALID_PARAM;
   12be8:	e3a00003 	mov	r0, #3
   12bec:	e12fff1e 	bx	lr

00012bf0 <ble_npl_sem_pend>:
}

ble_npl_error_t
ble_npl_sem_pend(struct ble_npl_sem *sem, uint32_t timeout)
{
   12bf0:	e92d4073 	push	{r0, r1, r4, r5, r6, lr}
    int err = 0;
    struct timespec wait;

    if (!sem) {
   12bf4:	e2505000 	subs	r5, r0, #0
        return BLE_NPL_INVALID_PARAM;
   12bf8:	03a00003 	moveq	r0, #3
    if (!sem) {
   12bfc:	0a00002a 	beq	12cac <ble_npl_sem_pend+0xbc>
    }

    if (timeout == BLE_NPL_TIME_FOREVER) {
   12c00:	e3710106 	cmn	r1, #-2147483647	; 0x80000001
   12c04:	e1a04001 	mov	r4, r1
   12c08:	1a000002 	bne	12c18 <ble_npl_sem_pend+0x28>
        err = sem_wait(&sem->lock);
   12c0c:	ebfffdd3 	bl	12360 <sem_wait@plt>
   12c10:	e1a04000 	mov	r4, r0
   12c14:	ea00001d 	b	12c90 <ble_npl_sem_pend+0xa0>
    } else {
        err = clock_gettime(CLOCK_REALTIME, &wait);
   12c18:	e1a0100d 	mov	r1, sp
   12c1c:	e3a00000 	mov	r0, #0
   12c20:	ebfffcea 	bl	11fd0 <clock_gettime@plt>
        if (err) {
   12c24:	e3500000 	cmp	r0, #0
   12c28:	0a000001 	beq	12c34 <ble_npl_sem_pend+0x44>
            return BLE_NPL_ERROR;
   12c2c:	e3a0000c 	mov	r0, #12
   12c30:	ea00001d 	b	12cac <ble_npl_sem_pend+0xbc>
        }

        wait.tv_sec  += timeout / 1000;
   12c34:	e3a01ffa 	mov	r1, #1000	; 0x3e8
   12c38:	e1a00004 	mov	r0, r4
   12c3c:	eb00af8c 	bl	3ea74 <__udivsi3>
   12c40:	e59d3000 	ldr	r3, [sp]
        wait.tv_nsec += (timeout % 1000) * 1000000;
   12c44:	e3a01ffa 	mov	r1, #1000	; 0x3e8
        wait.tv_sec  += timeout / 1000;
   12c48:	e0830000 	add	r0, r3, r0
   12c4c:	e58d0000 	str	r0, [sp]
        wait.tv_nsec += (timeout % 1000) * 1000000;
   12c50:	e1a00004 	mov	r0, r4
   12c54:	eb00afb0 	bl	3eb1c <__aeabi_uidivmod>
   12c58:	e59d2004 	ldr	r2, [sp, #4]
   12c5c:	e59f3050 	ldr	r3, [pc, #80]	; 12cb4 <ble_npl_sem_pend+0xc4>

        err = sem_timedwait(&sem->lock, &wait);
   12c60:	e1a00005 	mov	r0, r5
        wait.tv_nsec += (timeout % 1000) * 1000000;
   12c64:	e0212193 	mla	r1, r3, r1, r2
   12c68:	e58d1004 	str	r1, [sp, #4]
        err = sem_timedwait(&sem->lock, &wait);
   12c6c:	e1a0100d 	mov	r1, sp
   12c70:	ebfffd30 	bl	12138 <sem_timedwait@plt>
        if (err && errno == ETIMEDOUT) {
   12c74:	e2504000 	subs	r4, r0, #0
   12c78:	0a000004 	beq	12c90 <ble_npl_sem_pend+0xa0>
   12c7c:	ebfffccd 	bl	11fb8 <__errno_location@plt>
   12c80:	e5903000 	ldr	r3, [r0]
   12c84:	e353006e 	cmp	r3, #110	; 0x6e
            return BLE_NPL_TIMEOUT;
   12c88:	03a00006 	moveq	r0, #6
        if (err && errno == ETIMEDOUT) {
   12c8c:	0a000006 	beq	12cac <ble_npl_sem_pend+0xbc>
        }
    }

	if(sem->vaild == 0){
   12c90:	e5953010 	ldr	r3, [r5, #16]
   12c94:	e3530000 	cmp	r3, #0
		return BLE_NPL_OS_NOT_STARTED;
   12c98:	03a00009 	moveq	r0, #9
	if(sem->vaild == 0){
   12c9c:	0a000002 	beq	12cac <ble_npl_sem_pend+0xbc>
	}
	
    return (err) ? BLE_NPL_ERROR : BLE_NPL_OK;
   12ca0:	e3540000 	cmp	r4, #0
   12ca4:	01a00004 	moveq	r0, r4
   12ca8:	1affffdf 	bne	12c2c <ble_npl_sem_pend+0x3c>
}
   12cac:	e28dd008 	add	sp, sp, #8
   12cb0:	e8bd8070 	pop	{r4, r5, r6, pc}
   12cb4:	000f4240 	.word	0x000f4240

00012cb8 <ble_npl_sem_get_count>:
uint16_t
ble_npl_sem_get_count(struct ble_npl_sem *sem)
{
    int count;

    assert(sem);
   12cb8:	e3500000 	cmp	r0, #0
{
   12cbc:	e92d4007 	push	{r0, r1, r2, lr}
    assert(sem);
   12cc0:	1a000008 	bne	12ce8 <ble_npl_sem_get_count+0x30>
   12cc4:	e59f3030 	ldr	r3, [pc, #48]	; 12cfc <ble_npl_sem_get_count+0x44>
   12cc8:	e59f1030 	ldr	r1, [pc, #48]	; 12d00 <ble_npl_sem_get_count+0x48>
   12ccc:	e59f0030 	ldr	r0, [pc, #48]	; 12d04 <ble_npl_sem_get_count+0x4c>
   12cd0:	e08f3003 	add	r3, pc, r3
   12cd4:	e2833011 	add	r3, r3, #17
   12cd8:	e3a02066 	mov	r2, #102	; 0x66
   12cdc:	e08f1001 	add	r1, pc, r1
   12ce0:	e08f0000 	add	r0, pc, r0
   12ce4:	ebfffd01 	bl	120f0 <__assert@plt>
    assert(&sem->lock);
    sem_getvalue(&sem->lock, &count);
   12ce8:	e28d1004 	add	r1, sp, #4
   12cec:	ebfffd89 	bl	12318 <sem_getvalue@plt>

    return count;
}
   12cf0:	e1dd00b4 	ldrh	r0, [sp, #4]
   12cf4:	e28dd00c 	add	sp, sp, #12
   12cf8:	e49df004 	pop	{pc}		; (ldr pc, [sp], #4)
   12cfc:	0002c8a7 	.word	0x0002c8a7
   12d00:	0002c8c2 	.word	0x0002c8c2
   12d04:	0002c94b 	.word	0x0002c94b

00012d08 <print_addr>:
    }
}

static void
print_addr(const void *addr)
{
   12d08:	e92d401f 	push	{r0, r1, r2, r3, r4, lr}
    const uint8_t *u8p;

    u8p = addr;
    MODLOG_DFLT(INFO, "%02x:%02x:%02x:%02x:%02x:%02x",
   12d0c:	e5d0c000 	ldrb	ip, [r0]
   12d10:	e5d03003 	ldrb	r3, [r0, #3]
   12d14:	e5d02004 	ldrb	r2, [r0, #4]
   12d18:	e5d01005 	ldrb	r1, [r0, #5]
   12d1c:	e58dc008 	str	ip, [sp, #8]
   12d20:	e5d0c001 	ldrb	ip, [r0, #1]
   12d24:	e58dc004 	str	ip, [sp, #4]
   12d28:	e5d00002 	ldrb	r0, [r0, #2]
   12d2c:	e58d0000 	str	r0, [sp]
   12d30:	e59f000c 	ldr	r0, [pc, #12]	; 12d44 <print_addr+0x3c>
   12d34:	e08f0000 	add	r0, pc, r0
   12d38:	ebfffd6a 	bl	122e8 <printf@plt>
                u8p[5], u8p[4], u8p[3], u8p[2], u8p[1], u8p[0]);
}
   12d3c:	e28dd014 	add	sp, sp, #20
   12d40:	e49df004 	pop	{pc}		; (ldr pc, [sp], #4)
   12d44:	0002c951 	.word	0x0002c951

00012d48 <print_bytes>:
{
   12d48:	e92d47f0 	push	{r4, r5, r6, r7, r8, r9, sl, lr}
        MODLOG_DFLT(INFO, "%s0x%02x", i != 0 ? ":" : "", bytes[i]);
   12d4c:	e59f7048 	ldr	r7, [pc, #72]	; 12d9c <print_bytes+0x54>
   12d50:	e59f8048 	ldr	r8, [pc, #72]	; 12da0 <print_bytes+0x58>
   12d54:	e59f9048 	ldr	r9, [pc, #72]	; 12da4 <print_bytes+0x5c>
{
   12d58:	e1a06000 	mov	r6, r0
   12d5c:	e1a05001 	mov	r5, r1
    for (i = 0; i < len; i++) {
   12d60:	e3a04000 	mov	r4, #0
        MODLOG_DFLT(INFO, "%s0x%02x", i != 0 ? ":" : "", bytes[i]);
   12d64:	e08f7007 	add	r7, pc, r7
   12d68:	e08f8008 	add	r8, pc, r8
   12d6c:	e08f9009 	add	r9, pc, r9
    for (i = 0; i < len; i++) {
   12d70:	e1540005 	cmp	r4, r5
   12d74:	aa000007 	bge	12d98 <print_bytes+0x50>
        MODLOG_DFLT(INFO, "%s0x%02x", i != 0 ? ":" : "", bytes[i]);
   12d78:	e3540000 	cmp	r4, #0
   12d7c:	e7d62004 	ldrb	r2, [r6, r4]
   12d80:	11a01007 	movne	r1, r7
   12d84:	01a01008 	moveq	r1, r8
   12d88:	e1a00009 	mov	r0, r9
   12d8c:	ebfffd55 	bl	122e8 <printf@plt>
    for (i = 0; i < len; i++) {
   12d90:	e2844001 	add	r4, r4, #1
   12d94:	eafffff5 	b	12d70 <print_bytes+0x28>
}
   12d98:	e8bd87f0 	pop	{r4, r5, r6, r7, r8, r9, sl, pc}
   12d9c:	000305e8 	.word	0x000305e8
   12da0:	0002e5fd 	.word	0x0002e5fd
   12da4:	0002c937 	.word	0x0002c937

00012da8 <blesmt_advertise>:
static void blesmt_advertise(void)
{
    struct ble_gap_adv_params adv_params;
    struct ble_hs_adv_fields fields;
	ble_uuid16_t uuids16[2];
	uint8_t mfg_data[3] = {0xAB, 0xAB, 0xA0};
   12da8:	e59f1184 	ldr	r1, [pc, #388]	; 12f34 <blesmt_advertise+0x18c>
{
   12dac:	e92d4ff0 	push	{r4, r5, r6, r7, r8, r9, sl, fp, lr}
	int rc;

    memset(&fields, 0, sizeof(fields));	
	
    fields.name = (uint8_t *)device_name;
   12db0:	e59fb180 	ldr	fp, [pc, #384]	; 12f38 <blesmt_advertise+0x190>
{
   12db4:	e24dd0ec 	sub	sp, sp, #236	; 0xec
	uint8_t mfg_data[3] = {0xAB, 0xAB, 0xA0};
   12db8:	e28d9008 	add	r9, sp, #8
   12dbc:	e3a08003 	mov	r8, #3
   12dc0:	e1a02008 	mov	r2, r8
   12dc4:	e08f1001 	add	r1, pc, r1
    memset(&fields, 0, sizeof(fields));	
   12dc8:	e28d5028 	add	r5, sp, #40	; 0x28
	uint8_t mfg_data[3] = {0xAB, 0xAB, 0xA0};
   12dcc:	e1a00009 	mov	r0, r9
   12dd0:	ebfffc8a 	bl	12000 <memcpy@plt>
    memset(&fields, 0, sizeof(fields));	
   12dd4:	e3a01000 	mov	r1, #0
   12dd8:	e3a02060 	mov	r2, #96	; 0x60
   12ddc:	e1a00005 	mov	r0, r5
   12de0:	ebfffd10 	bl	12228 <memset@plt>
    fields.name_len = strlen(device_name);
    fields.name_is_complete = 1;
   12de4:	e3a03001 	mov	r3, #1
   12de8:	e5cd3049 	strb	r3, [sp, #73]	; 0x49

	uuids16[0].u.type = BLE_UUID_TYPE_16;
	uuids16[0].value = BLE_ATBM_GAP_SVR;
   12dec:	e59f3148 	ldr	r3, [pc, #328]	; 12f3c <blesmt_advertise+0x194>
	uuids16[0].u.type = BLE_UUID_TYPE_16;
   12df0:	e3a06010 	mov	r6, #16
	uuids16[0].value = BLE_ATBM_GAP_SVR;
   12df4:	e1cd30be 	strh	r3, [sp, #14]
	uuids16[1].u.type = BLE_UUID_TYPE_16;
	uuids16[1].value = BLE_ATBM_GAP_SVR1;
   12df8:	e2833001 	add	r3, r3, #1
   12dfc:	e1cd31b2 	strh	r3, [sp, #18]
	fields.uuids16 = &uuids16[0];
   12e00:	e28d300c 	add	r3, sp, #12
   12e04:	e58d302c 	str	r3, [sp, #44]	; 0x2c
    fields.name = (uint8_t *)device_name;
   12e08:	e08fb00b 	add	fp, pc, fp
	fields.num_uuids16 = 2;
	fields.uuids16_is_complete = 1;
   12e0c:	e3a03001 	mov	r3, #1
    fields.name_len = strlen(device_name);
   12e10:	e3a0a008 	mov	sl, #8
	fields.num_uuids16 = 2;
   12e14:	e3a04002 	mov	r4, #2

	fields.mfg_data = mfg_data;
	fields.mfg_data_len = 3;
	
    rc = ble_gap_adv_set_fields(&fields);
   12e18:	e1a00005 	mov	r0, r5
    fields.name = (uint8_t *)device_name;
   12e1c:	e58db044 	str	fp, [sp, #68]	; 0x44
    fields.name_len = strlen(device_name);
   12e20:	e5cda048 	strb	sl, [sp, #72]	; 0x48
	uuids16[0].u.type = BLE_UUID_TYPE_16;
   12e24:	e5cd600c 	strb	r6, [sp, #12]
	uuids16[1].u.type = BLE_UUID_TYPE_16;
   12e28:	e5cd6010 	strb	r6, [sp, #16]
	fields.num_uuids16 = 2;
   12e2c:	e5cd4030 	strb	r4, [sp, #48]	; 0x30
	fields.uuids16_is_complete = 1;
   12e30:	e5cd3031 	strb	r3, [sp, #49]	; 0x31
	fields.mfg_data = mfg_data;
   12e34:	e58d9080 	str	r9, [sp, #128]	; 0x80
	fields.mfg_data_len = 3;
   12e38:	e5cd8084 	strb	r8, [sp, #132]	; 0x84
    rc = ble_gap_adv_set_fields(&fields);
   12e3c:	eb001e3c 	bl	1a734 <ble_gap_adv_set_fields>
{
   12e40:	e59f70f8 	ldr	r7, [pc, #248]	; 12f40 <blesmt_advertise+0x198>
   12e44:	e08f7007 	add	r7, pc, r7
    if (rc != 0) {
   12e48:	e2501000 	subs	r1, r0, #0
        iot_printf("error setting advertisement data; rc=%d\n", rc);
   12e4c:	159f00f0 	ldrne	r0, [pc, #240]	; 12f44 <blesmt_advertise+0x19c>
   12e50:	108f0000 	addne	r0, pc, r0
   12e54:	1a000033 	bne	12f28 <blesmt_advertise+0x180>
    }
	//ˇ§ˇă???ˇ§o?ˇ§|?ˇě?ˇ§ˇ§??ˇ§?|??ˇ§1????
	struct ble_hs_adv_fields adv_fields;
	ble_uuid16_t uuids16_rsp[2];
	uint8_t mfg_rsp_data[3] = {0xff, 0xcc, 0xdd};
	memset(&adv_fields, 0, sizeof(adv_fields));	
   12e58:	e28d5088 	add	r5, sp, #136	; 0x88
   12e5c:	e3a02060 	mov	r2, #96	; 0x60
   12e60:	e1a00005 	mov	r0, r5
   12e64:	ebfffcef 	bl	12228 <memset@plt>

	adv_fields.name = (uint8_t *)device_name;
	adv_fields.name_len = strlen(device_name);
	adv_fields.name_is_complete = 1;
   12e68:	e5dd30a9 	ldrb	r3, [sp, #169]	; 0xa9
	adv_fields.uuids16 = &uuids16_rsp[0];
	adv_fields.num_uuids16 = 2;
	adv_fields.uuids16_is_complete = 1;
	adv_fields.mfg_data = mfg_data;
	adv_fields.mfg_data_len = 3;
	rc=ble_gap_adv_rsp_set_fields(&adv_fields);
   12e6c:	e1a00005 	mov	r0, r5
	adv_fields.name_is_complete = 1;
   12e70:	e3833001 	orr	r3, r3, #1
   12e74:	e5cd30a9 	strb	r3, [sp, #169]	; 0xa9
	uuids16_rsp[0].value = 0xccc0;
   12e78:	e59f30c8 	ldr	r3, [pc, #200]	; 12f48 <blesmt_advertise+0x1a0>
	adv_fields.name = (uint8_t *)device_name;
   12e7c:	e58db0a4 	str	fp, [sp, #164]	; 0xa4
	uuids16_rsp[0].value = 0xccc0;
   12e80:	e1cd31b6 	strh	r3, [sp, #22]
	uuids16_rsp[1].value = 0xddd0;
   12e84:	e59f30c0 	ldr	r3, [pc, #192]	; 12f4c <blesmt_advertise+0x1a4>
	adv_fields.name_len = strlen(device_name);
   12e88:	e5cda0a8 	strb	sl, [sp, #168]	; 0xa8
	uuids16_rsp[1].value = 0xddd0;
   12e8c:	e1cd31ba 	strh	r3, [sp, #26]
	adv_fields.uuids16 = &uuids16_rsp[0];
   12e90:	e28d3014 	add	r3, sp, #20
   12e94:	e58d308c 	str	r3, [sp, #140]	; 0x8c
	adv_fields.uuids16_is_complete = 1;
   12e98:	e5dd3091 	ldrb	r3, [sp, #145]	; 0x91
	uuids16_rsp[0].u.type = BLE_UUID_TYPE_16;
   12e9c:	e5cd6014 	strb	r6, [sp, #20]
	adv_fields.uuids16_is_complete = 1;
   12ea0:	e3833001 	orr	r3, r3, #1
	uuids16_rsp[1].u.type = BLE_UUID_TYPE_16;
   12ea4:	e5cd6018 	strb	r6, [sp, #24]
	adv_fields.num_uuids16 = 2;
   12ea8:	e5cd4090 	strb	r4, [sp, #144]	; 0x90
	adv_fields.uuids16_is_complete = 1;
   12eac:	e5cd3091 	strb	r3, [sp, #145]	; 0x91
	adv_fields.mfg_data = mfg_data;
   12eb0:	e58d90e0 	str	r9, [sp, #224]	; 0xe0
	adv_fields.mfg_data_len = 3;
   12eb4:	e5cd80e4 	strb	r8, [sp, #228]	; 0xe4
	rc=ble_gap_adv_rsp_set_fields(&adv_fields);
   12eb8:	eb001e2b 	bl	1a76c <ble_gap_adv_rsp_set_fields>
	 if (rc != 0) {
   12ebc:	e2501000 	subs	r1, r0, #0
	    iot_printf("error setting advertisement rsp data; rc=%d\n", rc);
   12ec0:	159f0088 	ldrne	r0, [pc, #136]	; 12f50 <blesmt_advertise+0x1a8>
   12ec4:	108f0000 	addne	r0, pc, r0
   12ec8:	1a000016 	bne	12f28 <blesmt_advertise+0x180>
	if (rc != 0) {
	    iot_printf("ble_hs_id_set_rnd rc=%d\n", rc);
	    return;
	}	      
	#endif
    rc = ble_gap_adv_start(blesmt_addr_type, NULL, BLE_HS_FOREVER,
   12ecc:	e59f3080 	ldr	r3, [pc, #128]	; 12f54 <blesmt_advertise+0x1ac>
    memset(&adv_params, 0, sizeof(adv_params));
   12ed0:	e58d101c 	str	r1, [sp, #28]
    rc = ble_gap_adv_start(blesmt_addr_type, NULL, BLE_HS_FOREVER,
   12ed4:	e08f3003 	add	r3, pc, r3
   12ed8:	e5d30000 	ldrb	r0, [r3]
   12edc:	e59f3074 	ldr	r3, [pc, #116]	; 12f58 <blesmt_advertise+0x1b0>
    memset(&adv_params, 0, sizeof(adv_params));
   12ee0:	e58d1020 	str	r1, [sp, #32]
   12ee4:	e1cd12b4 	strh	r1, [sp, #36]	; 0x24
    rc = ble_gap_adv_start(blesmt_addr_type, NULL, BLE_HS_FOREVER,
   12ee8:	e58d1004 	str	r1, [sp, #4]
    adv_params.conn_mode = BLE_GAP_CONN_MODE_UND;
   12eec:	e5cd401c 	strb	r4, [sp, #28]
    adv_params.disc_mode = BLE_GAP_DISC_MODE_GEN;
   12ef0:	e5cd401d 	strb	r4, [sp, #29]
    rc = ble_gap_adv_start(blesmt_addr_type, NULL, BLE_HS_FOREVER,
   12ef4:	e7973003 	ldr	r3, [r7, r3]
   12ef8:	e3e02102 	mvn	r2, #-2147483648	; 0x80000000
   12efc:	e58d3000 	str	r3, [sp]
   12f00:	e28d301c 	add	r3, sp, #28
   12f04:	eb001d23 	bl	1a398 <ble_gap_adv_start>
                           		&adv_params, ble_slave_gap_event, NULL);
	if(!rc)
   12f08:	e2501000 	subs	r1, r0, #0
		atbm_ble_status=ATBM_BLE_STATUS_ADVERTISE;
   12f0c:	059f3048 	ldreq	r3, [pc, #72]	; 12f5c <blesmt_advertise+0x1b4>
   12f10:	03a02001 	moveq	r2, #1
   12f14:	07973003 	ldreq	r3, [r7, r3]
   12f18:	05c32000 	strbeq	r2, [r3]
   12f1c:	0a000002 	beq	12f2c <blesmt_advertise+0x184>
    if (rc != 0) {
        iot_printf("error enabling advertisement; rc=%d\n", rc);
   12f20:	e59f0038 	ldr	r0, [pc, #56]	; 12f60 <blesmt_advertise+0x1b8>
   12f24:	e08f0000 	add	r0, pc, r0
   12f28:	ebfffcee 	bl	122e8 <printf@plt>
					  ble_slave_gap_event, NULL);
	if (rc != 0) {
		iot_printf("Error initiating GAP discovery procedure; rc=%d\n",rc);
	}
	#endif
}
   12f2c:	e28dd0ec 	add	sp, sp, #236	; 0xec
   12f30:	e8bd8ff0 	pop	{r4, r5, r6, r7, r8, r9, sl, fp, pc}
   12f34:	0002c86b 	.word	0x0002c86b
   12f38:	0002c8a4 	.word	0x0002c8a4
   12f3c:	ffffbbb0 	.word	0xffffbbb0
   12f40:	000451b4 	.word	0x000451b4
   12f44:	0002c865 	.word	0x0002c865
   12f48:	ffffccc0 	.word	0xffffccc0
   12f4c:	ffffddd0 	.word	0xffffddd0
   12f50:	0002c81a 	.word	0x0002c81a
   12f54:	00045d08 	.word	0x00045d08
   12f58:	00000284 	.word	0x00000284
   12f5c:	00000178 	.word	0x00000178
   12f60:	0002c7e7 	.word	0x0002c7e7

00012f64 <print_uuid>:
{
   12f64:	e92d4010 	push	{r4, lr}
   12f68:	e24dd028 	sub	sp, sp, #40	; 0x28
    ble_uuid_to_str(uuid, buf);
   12f6c:	e1a0100d 	mov	r1, sp
   12f70:	eb0064ad 	bl	2c22c <ble_uuid_to_str>
    iot_printf("%s", buf);
   12f74:	e59f0010 	ldr	r0, [pc, #16]	; 12f8c <print_uuid+0x28>
   12f78:	e1a0100d 	mov	r1, sp
   12f7c:	e08f0000 	add	r0, pc, r0
   12f80:	ebfffcd8 	bl	122e8 <printf@plt>
}
   12f84:	e28dd028 	add	sp, sp, #40	; 0x28
   12f88:	e8bd8010 	pop	{r4, pc}
   12f8c:	0002e01c 	.word	0x0002e01c

00012f90 <ble_svc_dis_access>:
{
   12f90:	e92d4070 	push	{r4, r5, r6, lr}
    uint16_t uuid    = ble_uuid_u16(ctxt->chr->uuid);
   12f94:	e5923008 	ldr	r3, [r2, #8]
{
   12f98:	e1a05002 	mov	r5, r2
    uint16_t uuid    = ble_uuid_u16(ctxt->chr->uuid);
   12f9c:	e5930000 	ldr	r0, [r3]
   12fa0:	eb0064df 	bl	2c324 <ble_uuid_u16>
	switch(uuid) {
   12fa4:	e59f3088 	ldr	r3, [pc, #136]	; 13034 <ble_svc_dis_access+0xa4>
   12fa8:	e1500003 	cmp	r0, r3
   12fac:	0a000013 	beq	13000 <ble_svc_dis_access+0x70>
   12fb0:	e2833001 	add	r3, r3, #1
   12fb4:	e1500003 	cmp	r0, r3
   12fb8:	0a00000d 	beq	12ff4 <ble_svc_dis_access+0x64>
   12fbc:	e2433003 	sub	r3, r3, #3
   12fc0:	e1500003 	cmp	r0, r3
		info = firmware_info;
   12fc4:	059f406c 	ldreq	r4, [pc, #108]	; 13038 <ble_svc_dis_access+0xa8>
   12fc8:	008f4004 	addeq	r4, pc, r4
   12fcc:	0a00000d 	beq	13008 <ble_svc_dis_access+0x78>
		assert(0);
   12fd0:	e59f3064 	ldr	r3, [pc, #100]	; 1303c <ble_svc_dis_access+0xac>
   12fd4:	e59f1064 	ldr	r1, [pc, #100]	; 13040 <ble_svc_dis_access+0xb0>
   12fd8:	e59f0064 	ldr	r0, [pc, #100]	; 13044 <ble_svc_dis_access+0xb4>
   12fdc:	e08f3003 	add	r3, pc, r3
   12fe0:	e2833003 	add	r3, r3, #3
   12fe4:	e3a020c3 	mov	r2, #195	; 0xc3
   12fe8:	e08f1001 	add	r1, pc, r1
   12fec:	e08f0000 	add	r0, pc, r0
   12ff0:	ebfffc3e 	bl	120f0 <__assert@plt>
		info = ble_version;
   12ff4:	e59f404c 	ldr	r4, [pc, #76]	; 13048 <ble_svc_dis_access+0xb8>
   12ff8:	e08f4004 	add	r4, pc, r4
   12ffc:	ea000001 	b	13008 <ble_svc_dis_access+0x78>
		info = software_info;
   13000:	e59f4044 	ldr	r4, [pc, #68]	; 1304c <ble_svc_dis_access+0xbc>
   13004:	e08f4004 	add	r4, pc, r4
		rc = os_mbuf_append(ctxt->om, info, strlen(info));
   13008:	e1a00004 	mov	r0, r4
   1300c:	ebfffc1f 	bl	12090 <strlen@plt>
   13010:	e1a01004 	mov	r1, r4
   13014:	e1a02800 	lsl	r2, r0, #16
   13018:	e1a02822 	lsr	r2, r2, #16
   1301c:	e5950004 	ldr	r0, [r5, #4]
   13020:	eb007334 	bl	2fcf8 <os_mbuf_append>
}
   13024:	e3500000 	cmp	r0, #0
   13028:	13a00011 	movne	r0, #17
   1302c:	03a00000 	moveq	r0, #0
   13030:	e8bd8070 	pop	{r4, r5, r6, pc}
   13034:	00002a28 	.word	0x00002a28
   13038:	0002c772 	.word	0x0002c772
   1303c:	0002c653 	.word	0x0002c653
   13040:	0002c764 	.word	0x0002c764
   13044:	00032bca 	.word	0x00032bca
   13048:	0002c738 	.word	0x0002c738
   1304c:	0002c741 	.word	0x0002c741

00013050 <ble_slave_gap_event>:
{
   13050:	e92d40f0 	push	{r4, r5, r6, r7, lr}
	iot_printf("ble_slave_gap_event->type=%d\n",event->type);
   13054:	e5d01000 	ldrb	r1, [r0]
{
   13058:	e1a04000 	mov	r4, r0
	iot_printf("ble_slave_gap_event->type=%d\n",event->type);
   1305c:	e59f08f0 	ldr	r0, [pc, #2288]	; 13954 <ble_slave_gap_event+0x904>
{
   13060:	e24dd094 	sub	sp, sp, #148	; 0x94
	iot_printf("ble_slave_gap_event->type=%d\n",event->type);
   13064:	e08f0000 	add	r0, pc, r0
{
   13068:	e59f68e8 	ldr	r6, [pc, #2280]	; 13958 <ble_slave_gap_event+0x908>
	iot_printf("ble_slave_gap_event->type=%d\n",event->type);
   1306c:	ebfffc9d 	bl	122e8 <printf@plt>
	switch (event->type) {
   13070:	e5d43000 	ldrb	r3, [r4]
{
   13074:	e08f6006 	add	r6, pc, r6
	switch (event->type) {
   13078:	e3530012 	cmp	r3, #18
   1307c:	908ff103 	addls	pc, pc, r3, lsl #2
   13080:	ea000225 	b	1391c <ble_slave_gap_event+0x8cc>
   13084:	ea000011 	b	130d0 <ble_slave_gap_event+0x80>
   13088:	ea000034 	b	13160 <ble_slave_gap_event+0x110>
   1308c:	ea000222 	b	1391c <ble_slave_gap_event+0x8cc>
   13090:	ea00015b 	b	13604 <ble_slave_gap_event+0x5b4>
   13094:	ea00017c 	b	1368c <ble_slave_gap_event+0x63c>
   13098:	ea00021f 	b	1391c <ble_slave_gap_event+0x8cc>
   1309c:	ea00021e 	b	1391c <ble_slave_gap_event+0x8cc>
   130a0:	ea00003d 	b	1319c <ble_slave_gap_event+0x14c>
   130a4:	ea00018c 	b	136dc <ble_slave_gap_event+0x68c>
   130a8:	ea00018f 	b	136ec <ble_slave_gap_event+0x69c>
   130ac:	ea000193 	b	13700 <ble_slave_gap_event+0x6b0>
   130b0:	ea00017d 	b	136ac <ble_slave_gap_event+0x65c>
   130b4:	ea0001a3 	b	13748 <ble_slave_gap_event+0x6f8>
   130b8:	ea0001ad 	b	13774 <ble_slave_gap_event+0x724>
   130bc:	ea0001b3 	b	13790 <ble_slave_gap_event+0x740>
   130c0:	ea0001e1 	b	1384c <ble_slave_gap_event+0x7fc>
   130c4:	ea0001e7 	b	13868 <ble_slave_gap_event+0x818>
   130c8:	ea000200 	b	138d0 <ble_slave_gap_event+0x880>
   130cc:	ea0001f6 	b	138ac <ble_slave_gap_event+0x85c>
		               event->connect.status == 0 ? "established" : "failed",
   130d0:	e5942004 	ldr	r2, [r4, #4]
		iot_printf("connection %s; status=%d ",
   130d4:	e3520000 	cmp	r2, #0
   130d8:	159f187c 	ldrne	r1, [pc, #2172]	; 1395c <ble_slave_gap_event+0x90c>
   130dc:	108f1001 	addne	r1, pc, r1
   130e0:	059f1878 	ldreq	r1, [pc, #2168]	; 13960 <ble_slave_gap_event+0x910>
   130e4:	008f1001 	addeq	r1, pc, r1
   130e8:	e59f0874 	ldr	r0, [pc, #2164]	; 13964 <ble_slave_gap_event+0x914>
   130ec:	e08f0000 	add	r0, pc, r0
   130f0:	ebfffc7c 	bl	122e8 <printf@plt>
		if (event->connect.status == 0) {
   130f4:	e5945004 	ldr	r5, [r4, #4]
   130f8:	e3550000 	cmp	r5, #0
   130fc:	1a000012 	bne	1314c <ble_slave_gap_event+0xfc>
			atbm_ble_status=ATBM_BLE_STATUS_CONNECT;
   13100:	e59f3860 	ldr	r3, [pc, #2144]	; 13968 <ble_slave_gap_event+0x918>
   13104:	e3a02002 	mov	r2, #2
   13108:	e7963003 	ldr	r3, [r6, r3]
			ble_att_set_preferred_mtu(255);
   1310c:	e3a000ff 	mov	r0, #255	; 0xff
			atbm_ble_status=ATBM_BLE_STATUS_CONNECT;
   13110:	e5c32000 	strb	r2, [r3]
			ble_att_set_preferred_mtu(255);
   13114:	eb000c15 	bl	16170 <ble_att_set_preferred_mtu>
			rc = ble_gattc_exchange_mtu(event->connect.conn_handle, NULL, NULL);
   13118:	e1a02005 	mov	r2, r5
   1311c:	e1a01005 	mov	r1, r5
   13120:	e1d400b8 	ldrh	r0, [r4, #8]
   13124:	eb002b16 	bl	1dd84 <ble_gattc_exchange_mtu>
		    iot_printf("connection, handle=%d\n",event->connect.conn_handle);
   13128:	e59f083c 	ldr	r0, [pc, #2108]	; 1396c <ble_slave_gap_event+0x91c>
   1312c:	e1d410b8 	ldrh	r1, [r4, #8]
   13130:	e08f0000 	add	r0, pc, r0
   13134:	ebfffc6b 	bl	122e8 <printf@plt>
		    ble_conn_handle = event->connect.conn_handle;
   13138:	e59f3830 	ldr	r3, [pc, #2096]	; 13970 <ble_slave_gap_event+0x920>
   1313c:	e1d420b8 	ldrh	r2, [r4, #8]
   13140:	e7963003 	ldr	r3, [r6, r3]
   13144:	e1c320b0 	strh	r2, [r3]
   13148:	ea0001fe 	b	13948 <ble_slave_gap_event+0x8f8>
			iot_printf("Connection failed; resume advertising\n");
   1314c:	e59f0820 	ldr	r0, [pc, #2080]	; 13974 <ble_slave_gap_event+0x924>
   13150:	e08f0000 	add	r0, pc, r0
   13154:	ebfffc6c 	bl	1230c <puts@plt>
			blesmt_advertise();
   13158:	ebffff12 	bl	12da8 <blesmt_advertise>
   1315c:	ea0001ee 	b	1391c <ble_slave_gap_event+0x8cc>
		atbm_ble_status=ATBM_BLE_STATUS_IDLE;
   13160:	e59f3800 	ldr	r3, [pc, #2048]	; 13968 <ble_slave_gap_event+0x918>
	    iot_printf("disconnect; reason=%d \n", event->disconnect.reason);
   13164:	e59f080c 	ldr	r0, [pc, #2060]	; 13978 <ble_slave_gap_event+0x928>
		atbm_ble_status=ATBM_BLE_STATUS_IDLE;
   13168:	e7963003 	ldr	r3, [r6, r3]
   1316c:	e3a02000 	mov	r2, #0
	    iot_printf("disconnect; reason=%d \n", event->disconnect.reason);
   13170:	e5941004 	ldr	r1, [r4, #4]
   13174:	e08f0000 	add	r0, pc, r0
		atbm_ble_status=ATBM_BLE_STATUS_IDLE;
   13178:	e5c32000 	strb	r2, [r3]
	    iot_printf("disconnect; reason=%d \n", event->disconnect.reason);
   1317c:	ebfffc59 	bl	122e8 <printf@plt>
	    if(!atbm_ble_is_quit)
   13180:	e59f37f4 	ldr	r3, [pc, #2036]	; 1397c <ble_slave_gap_event+0x92c>
   13184:	e7963003 	ldr	r3, [r6, r3]
   13188:	e5d35000 	ldrb	r5, [r3]
   1318c:	e3550000 	cmp	r5, #0
   13190:	1a0001e1 	bne	1391c <ble_slave_gap_event+0x8cc>
	    	blesmt_advertise();
   13194:	ebffff03 	bl	12da8 <blesmt_advertise>
   13198:	ea0001ea 	b	13948 <ble_slave_gap_event+0x8f8>
			ble_hs_adv_parse_fields(&fields, event->disc.data, event->disc.length_data);
   1319c:	e5941010 	ldr	r1, [r4, #16]
   131a0:	e5d42005 	ldrb	r2, [r4, #5]
   131a4:	e28d0030 	add	r0, sp, #48	; 0x30
   131a8:	eb00382d 	bl	21264 <ble_hs_adv_parse_fields>
			if(fields.name && fields.name_len){
   131ac:	e59d104c 	ldr	r1, [sp, #76]	; 0x4c
   131b0:	e3510000 	cmp	r1, #0
   131b4:	0a00010b 	beq	135e8 <ble_slave_gap_event+0x598>
   131b8:	e5dd5050 	ldrb	r5, [sp, #80]	; 0x50
   131bc:	e3550000 	cmp	r5, #0
   131c0:	0a000108 	beq	135e8 <ble_slave_gap_event+0x598>
				memcpy(ble_name, fields.name, fields.name_len);
   131c4:	e28d6010 	add	r6, sp, #16
   131c8:	e1a02005 	mov	r2, r5
   131cc:	e1a00006 	mov	r0, r6
   131d0:	ebfffb8a 	bl	12000 <memcpy@plt>
				iot_printf("\n********************ble scan adv data*****************************\n");
   131d4:	e59f07a4 	ldr	r0, [pc, #1956]	; 13980 <ble_slave_gap_event+0x930>
				ble_name[fields.name_len]=0;
   131d8:	e28d3090 	add	r3, sp, #144	; 0x90
   131dc:	e0835005 	add	r5, r3, r5
				iot_printf("\n********************ble scan adv data*****************************\n");
   131e0:	e08f0000 	add	r0, pc, r0
				ble_name[fields.name_len]=0;
   131e4:	e3a03000 	mov	r3, #0
   131e8:	e5453080 	strb	r3, [r5, #-128]	; 0xffffff80
				iot_printf("\n********************ble scan adv data*****************************\n");
   131ec:	ebfffc46 	bl	1230c <puts@plt>
				iot_printf("ble_name:%s\n",ble_name);
   131f0:	e59f078c 	ldr	r0, [pc, #1932]	; 13984 <ble_slave_gap_event+0x934>
   131f4:	e1a01006 	mov	r1, r6
   131f8:	e08f0000 	add	r0, pc, r0
   131fc:	ebfffc39 	bl	122e8 <printf@plt>
					iot_printf("received advertisement; event_type=%d rssi=%d "
   13200:	e59f0780 	ldr	r0, [pc, #1920]	; 13988 <ble_slave_gap_event+0x938>
   13204:	e5d41004 	ldrb	r1, [r4, #4]
   13208:	e5d43006 	ldrb	r3, [r4, #6]
   1320c:	e1d420dd 	ldrsb	r2, [r4, #13]
   13210:	e08f0000 	add	r0, pc, r0
   13214:	ebfffc33 	bl	122e8 <printf@plt>
					print_addr(event->disc.addr.val);
   13218:	e2840007 	add	r0, r4, #7
   1321c:	ebfffeb9 	bl	12d08 <print_addr>
					iot_printf(" fields:\n");
   13220:	e59f0764 	ldr	r0, [pc, #1892]	; 1398c <ble_slave_gap_event+0x93c>
   13224:	e08f0000 	add	r0, pc, r0
   13228:	ebfffc37 	bl	1230c <puts@plt>
    if (fields->flags != 0) {
   1322c:	e5dd1030 	ldrb	r1, [sp, #48]	; 0x30
   13230:	e3510000 	cmp	r1, #0
   13234:	0a00001a 	beq	132a4 <ble_slave_gap_event+0x254>
        iot_printf("    flags=0x%02x:\n", fields->flags);
   13238:	e59f0750 	ldr	r0, [pc, #1872]	; 13990 <ble_slave_gap_event+0x940>
   1323c:	e08f0000 	add	r0, pc, r0
   13240:	ebfffc28 	bl	122e8 <printf@plt>
        if (!(fields->flags & BLE_HS_ADV_F_DISC_LTD) &&
   13244:	e5dd3030 	ldrb	r3, [sp, #48]	; 0x30
   13248:	e3130003 	tst	r3, #3
   1324c:	1a000002 	bne	1325c <ble_slave_gap_event+0x20c>
                iot_printf("        Non-discoverable mode\n");
   13250:	e59f073c 	ldr	r0, [pc, #1852]	; 13994 <ble_slave_gap_event+0x944>
   13254:	e08f0000 	add	r0, pc, r0
   13258:	ebfffc2b 	bl	1230c <puts@plt>
        if (fields->flags & BLE_HS_ADV_F_DISC_LTD) {
   1325c:	e5dd3030 	ldrb	r3, [sp, #48]	; 0x30
   13260:	e3130001 	tst	r3, #1
   13264:	0a000002 	beq	13274 <ble_slave_gap_event+0x224>
                iot_printf("        Limited discoverable mode\n");
   13268:	e59f0728 	ldr	r0, [pc, #1832]	; 13998 <ble_slave_gap_event+0x948>
   1326c:	e08f0000 	add	r0, pc, r0
   13270:	ebfffc25 	bl	1230c <puts@plt>
        if (fields->flags & BLE_HS_ADV_F_DISC_GEN) {
   13274:	e5dd3030 	ldrb	r3, [sp, #48]	; 0x30
   13278:	e3130002 	tst	r3, #2
   1327c:	0a000002 	beq	1328c <ble_slave_gap_event+0x23c>
                iot_printf("        General discoverable mode\n");
   13280:	e59f0714 	ldr	r0, [pc, #1812]	; 1399c <ble_slave_gap_event+0x94c>
   13284:	e08f0000 	add	r0, pc, r0
   13288:	ebfffc1f 	bl	1230c <puts@plt>
        if (fields->flags & BLE_HS_ADV_F_BREDR_UNSUP) {
   1328c:	e5dd3030 	ldrb	r3, [sp, #48]	; 0x30
   13290:	e3130004 	tst	r3, #4
   13294:	0a000002 	beq	132a4 <ble_slave_gap_event+0x254>
                iot_printf("        BR/EDR not supported\n");
   13298:	e59f0700 	ldr	r0, [pc, #1792]	; 139a0 <ble_slave_gap_event+0x950>
   1329c:	e08f0000 	add	r0, pc, r0
   132a0:	ebfffc19 	bl	1230c <puts@plt>
    if (fields->uuids16 != NULL) {
   132a4:	e59d3034 	ldr	r3, [sp, #52]	; 0x34
   132a8:	e3530000 	cmp	r3, #0
   132ac:	0a000015 	beq	13308 <ble_slave_gap_event+0x2b8>
        iot_printf("    uuids16(%scomplete)=",
   132b0:	e5dd3039 	ldrb	r3, [sp, #57]	; 0x39
   132b4:	e3130001 	tst	r3, #1
   132b8:	059f16e4 	ldreq	r1, [pc, #1764]	; 139a4 <ble_slave_gap_event+0x954>
   132bc:	008f1001 	addeq	r1, pc, r1
   132c0:	159f16e0 	ldrne	r1, [pc, #1760]	; 139a8 <ble_slave_gap_event+0x958>
   132c4:	108f1001 	addne	r1, pc, r1
   132c8:	e59f06dc 	ldr	r0, [pc, #1756]	; 139ac <ble_slave_gap_event+0x95c>
        for (i = 0; i < fields->num_uuids16; i++) {
   132cc:	e3a05000 	mov	r5, #0
        iot_printf("    uuids16(%scomplete)=",
   132d0:	e08f0000 	add	r0, pc, r0
   132d4:	ebfffc03 	bl	122e8 <printf@plt>
        for (i = 0; i < fields->num_uuids16; i++) {
   132d8:	e5dd3038 	ldrb	r3, [sp, #56]	; 0x38
   132dc:	e1550003 	cmp	r5, r3
   132e0:	aa000006 	bge	13300 <ble_slave_gap_event+0x2b0>
            print_uuid(&fields->uuids16[i].u);
   132e4:	e59d0034 	ldr	r0, [sp, #52]	; 0x34
   132e8:	e0800105 	add	r0, r0, r5, lsl #2
   132ec:	ebffff1c 	bl	12f64 <print_uuid>
            iot_printf(" ");
   132f0:	e3a00020 	mov	r0, #32
   132f4:	ebfffb53 	bl	12048 <putchar@plt>
        for (i = 0; i < fields->num_uuids16; i++) {
   132f8:	e2855001 	add	r5, r5, #1
   132fc:	eafffff5 	b	132d8 <ble_slave_gap_event+0x288>
        iot_printf("\n");
   13300:	e3a0000a 	mov	r0, #10
   13304:	ebfffb4f 	bl	12048 <putchar@plt>
    if (fields->uuids32 != NULL) {
   13308:	e59d303c 	ldr	r3, [sp, #60]	; 0x3c
   1330c:	e3530000 	cmp	r3, #0
   13310:	0a000015 	beq	1336c <ble_slave_gap_event+0x31c>
        iot_printf("    uuids32(%scomplete)=",
   13314:	e5dd3041 	ldrb	r3, [sp, #65]	; 0x41
   13318:	e3130001 	tst	r3, #1
   1331c:	059f168c 	ldreq	r1, [pc, #1676]	; 139b0 <ble_slave_gap_event+0x960>
   13320:	008f1001 	addeq	r1, pc, r1
   13324:	159f1688 	ldrne	r1, [pc, #1672]	; 139b4 <ble_slave_gap_event+0x964>
   13328:	108f1001 	addne	r1, pc, r1
   1332c:	e59f0684 	ldr	r0, [pc, #1668]	; 139b8 <ble_slave_gap_event+0x968>
        for (i = 0; i < fields->num_uuids32; i++) {
   13330:	e3a05000 	mov	r5, #0
        iot_printf("    uuids32(%scomplete)=",
   13334:	e08f0000 	add	r0, pc, r0
   13338:	ebfffbea 	bl	122e8 <printf@plt>
        for (i = 0; i < fields->num_uuids32; i++) {
   1333c:	e5dd3040 	ldrb	r3, [sp, #64]	; 0x40
   13340:	e1550003 	cmp	r5, r3
   13344:	aa000006 	bge	13364 <ble_slave_gap_event+0x314>
            print_uuid(&fields->uuids32[i].u);
   13348:	e59d003c 	ldr	r0, [sp, #60]	; 0x3c
   1334c:	e0800185 	add	r0, r0, r5, lsl #3
   13350:	ebffff03 	bl	12f64 <print_uuid>
            iot_printf(" ");
   13354:	e3a00020 	mov	r0, #32
   13358:	ebfffb3a 	bl	12048 <putchar@plt>
        for (i = 0; i < fields->num_uuids32; i++) {
   1335c:	e2855001 	add	r5, r5, #1
   13360:	eafffff5 	b	1333c <ble_slave_gap_event+0x2ec>
        iot_printf("\n");
   13364:	e3a0000a 	mov	r0, #10
   13368:	ebfffb36 	bl	12048 <putchar@plt>
    if (fields->uuids128 != NULL) {
   1336c:	e59d3044 	ldr	r3, [sp, #68]	; 0x44
   13370:	e3530000 	cmp	r3, #0
   13374:	0a000016 	beq	133d4 <ble_slave_gap_event+0x384>
        iot_printf("    uuids128(%scomplete)=",
   13378:	e5dd3049 	ldrb	r3, [sp, #73]	; 0x49
   1337c:	e3130001 	tst	r3, #1
   13380:	059f1634 	ldreq	r1, [pc, #1588]	; 139bc <ble_slave_gap_event+0x96c>
   13384:	008f1001 	addeq	r1, pc, r1
   13388:	159f1630 	ldrne	r1, [pc, #1584]	; 139c0 <ble_slave_gap_event+0x970>
   1338c:	108f1001 	addne	r1, pc, r1
   13390:	e59f062c 	ldr	r0, [pc, #1580]	; 139c4 <ble_slave_gap_event+0x974>
        for (i = 0; i < fields->num_uuids128; i++) {
   13394:	e3a05000 	mov	r5, #0
        iot_printf("    uuids128(%scomplete)=",
   13398:	e08f0000 	add	r0, pc, r0
   1339c:	ebfffbd1 	bl	122e8 <printf@plt>
        for (i = 0; i < fields->num_uuids128; i++) {
   133a0:	e5dd3048 	ldrb	r3, [sp, #72]	; 0x48
   133a4:	e1550003 	cmp	r5, r3
   133a8:	aa000007 	bge	133cc <ble_slave_gap_event+0x37c>
            print_uuid(&fields->uuids128[i].u);
   133ac:	e59d0044 	ldr	r0, [sp, #68]	; 0x44
   133b0:	e0853205 	add	r3, r5, r5, lsl #4
   133b4:	e0800003 	add	r0, r0, r3
   133b8:	ebfffee9 	bl	12f64 <print_uuid>
            iot_printf(" ");
   133bc:	e3a00020 	mov	r0, #32
   133c0:	ebfffb20 	bl	12048 <putchar@plt>
        for (i = 0; i < fields->num_uuids128; i++) {
   133c4:	e2855001 	add	r5, r5, #1
   133c8:	eafffff4 	b	133a0 <ble_slave_gap_event+0x350>
        iot_printf("\n");
   133cc:	e3a0000a 	mov	r0, #10
   133d0:	ebfffb1c 	bl	12048 <putchar@plt>
    if (fields->name != NULL) {
   133d4:	e59d304c 	ldr	r3, [sp, #76]	; 0x4c
   133d8:	e3530000 	cmp	r3, #0
   133dc:	0a000013 	beq	13430 <ble_slave_gap_event+0x3e0>
        iot_printf("    name(%scomplete)=",
   133e0:	e5dd3051 	ldrb	r3, [sp, #81]	; 0x51
   133e4:	e3130001 	tst	r3, #1
   133e8:	059f15d8 	ldreq	r1, [pc, #1496]	; 139c8 <ble_slave_gap_event+0x978>
   133ec:	008f1001 	addeq	r1, pc, r1
   133f0:	159f15d4 	ldrne	r1, [pc, #1492]	; 139cc <ble_slave_gap_event+0x97c>
   133f4:	108f1001 	addne	r1, pc, r1
   133f8:	e59f05d0 	ldr	r0, [pc, #1488]	; 139d0 <ble_slave_gap_event+0x980>
        for(i=0;i<fields->name_len;i++){
   133fc:	e3a05000 	mov	r5, #0
        iot_printf("    name(%scomplete)=",
   13400:	e08f0000 	add	r0, pc, r0
   13404:	ebfffbb7 	bl	122e8 <printf@plt>
        for(i=0;i<fields->name_len;i++){
   13408:	e5dd3050 	ldrb	r3, [sp, #80]	; 0x50
   1340c:	e1550003 	cmp	r5, r3
   13410:	aa000004 	bge	13428 <ble_slave_gap_event+0x3d8>
			iot_printf("%c", ((char *)fields->name)[i]);
   13414:	e59d304c 	ldr	r3, [sp, #76]	; 0x4c
   13418:	e7d30005 	ldrb	r0, [r3, r5]
   1341c:	ebfffb09 	bl	12048 <putchar@plt>
        for(i=0;i<fields->name_len;i++){
   13420:	e2855001 	add	r5, r5, #1
   13424:	eafffff7 	b	13408 <ble_slave_gap_event+0x3b8>
        iot_printf("\n");
   13428:	e3a0000a 	mov	r0, #10
   1342c:	ebfffb05 	bl	12048 <putchar@plt>
    if (fields->tx_pwr_lvl_is_present) {
   13430:	e5dd3053 	ldrb	r3, [sp, #83]	; 0x53
   13434:	e3130001 	tst	r3, #1
   13438:	0a000003 	beq	1344c <ble_slave_gap_event+0x3fc>
        iot_printf("    tx_pwr_lvl=%d\n", fields->tx_pwr_lvl);
   1343c:	e59f0590 	ldr	r0, [pc, #1424]	; 139d4 <ble_slave_gap_event+0x984>
   13440:	e1dd15d2 	ldrsb	r1, [sp, #82]	; 0x52
   13444:	e08f0000 	add	r0, pc, r0
   13448:	ebfffba6 	bl	122e8 <printf@plt>
    if (fields->slave_itvl_range != NULL) {
   1344c:	e59d3054 	ldr	r3, [sp, #84]	; 0x54
   13450:	e3530000 	cmp	r3, #0
   13454:	0a000007 	beq	13478 <ble_slave_gap_event+0x428>
        iot_printf("    slave_itvl_range=");
   13458:	e59f0578 	ldr	r0, [pc, #1400]	; 139d8 <ble_slave_gap_event+0x988>
   1345c:	e08f0000 	add	r0, pc, r0
   13460:	ebfffba0 	bl	122e8 <printf@plt>
        print_bytes(fields->slave_itvl_range,
   13464:	e59d0054 	ldr	r0, [sp, #84]	; 0x54
   13468:	e3a01004 	mov	r1, #4
   1346c:	ebfffe35 	bl	12d48 <print_bytes>
        iot_printf("\n");
   13470:	e3a0000a 	mov	r0, #10
   13474:	ebfffaf3 	bl	12048 <putchar@plt>
    if (fields->svc_data_uuid16 != NULL) {
   13478:	e59d3058 	ldr	r3, [sp, #88]	; 0x58
   1347c:	e3530000 	cmp	r3, #0
   13480:	0a000007 	beq	134a4 <ble_slave_gap_event+0x454>
        iot_printf("    svc_data_uuid16=");
   13484:	e59f0550 	ldr	r0, [pc, #1360]	; 139dc <ble_slave_gap_event+0x98c>
   13488:	e08f0000 	add	r0, pc, r0
   1348c:	ebfffb95 	bl	122e8 <printf@plt>
        print_bytes(fields->svc_data_uuid16,
   13490:	e59d0058 	ldr	r0, [sp, #88]	; 0x58
   13494:	e5dd105c 	ldrb	r1, [sp, #92]	; 0x5c
   13498:	ebfffe2a 	bl	12d48 <print_bytes>
        iot_printf("\n");
   1349c:	e3a0000a 	mov	r0, #10
   134a0:	ebfffae8 	bl	12048 <putchar@plt>
    if (fields->public_tgt_addr != NULL) {
   134a4:	e59d3060 	ldr	r3, [sp, #96]	; 0x60
   134a8:	e3530000 	cmp	r3, #0
   134ac:	0a00000e 	beq	134ec <ble_slave_gap_event+0x49c>
        iot_printf("    public_tgt_addr=");
   134b0:	e59f0528 	ldr	r0, [pc, #1320]	; 139e0 <ble_slave_gap_event+0x990>
        for (i = 0; i < fields->num_public_tgt_addrs; i++) {
   134b4:	e3a05000 	mov	r5, #0
        iot_printf("    public_tgt_addr=");
   134b8:	e08f0000 	add	r0, pc, r0
   134bc:	ebfffb89 	bl	122e8 <printf@plt>
        u8p = fields->public_tgt_addr;
   134c0:	e59d6060 	ldr	r6, [sp, #96]	; 0x60
   134c4:	e3a07006 	mov	r7, #6
        for (i = 0; i < fields->num_public_tgt_addrs; i++) {
   134c8:	e5dd3064 	ldrb	r3, [sp, #100]	; 0x64
   134cc:	e0206597 	mla	r0, r7, r5, r6
   134d0:	e1550003 	cmp	r5, r3
   134d4:	aa000002 	bge	134e4 <ble_slave_gap_event+0x494>
            print_addr(u8p);
   134d8:	ebfffe0a 	bl	12d08 <print_addr>
        for (i = 0; i < fields->num_public_tgt_addrs; i++) {
   134dc:	e2855001 	add	r5, r5, #1
   134e0:	eafffff8 	b	134c8 <ble_slave_gap_event+0x478>
        iot_printf("\n");
   134e4:	e3a0000a 	mov	r0, #10
   134e8:	ebfffad6 	bl	12048 <putchar@plt>
    if (fields->appearance_is_present) {
   134ec:	e5dd3068 	ldrb	r3, [sp, #104]	; 0x68
   134f0:	e3130001 	tst	r3, #1
   134f4:	0a000003 	beq	13508 <ble_slave_gap_event+0x4b8>
        iot_printf("    appearance=0x%04x\n", fields->appearance);
   134f8:	e59f04e4 	ldr	r0, [pc, #1252]	; 139e4 <ble_slave_gap_event+0x994>
   134fc:	e1dd16b6 	ldrh	r1, [sp, #102]	; 0x66
   13500:	e08f0000 	add	r0, pc, r0
   13504:	ebfffb77 	bl	122e8 <printf@plt>
    if (fields->adv_itvl_is_present) {
   13508:	e5dd306c 	ldrb	r3, [sp, #108]	; 0x6c
   1350c:	e3130001 	tst	r3, #1
   13510:	0a000003 	beq	13524 <ble_slave_gap_event+0x4d4>
        iot_printf("    adv_itvl=0x%04x\n", fields->adv_itvl);
   13514:	e59f04cc 	ldr	r0, [pc, #1228]	; 139e8 <ble_slave_gap_event+0x998>
   13518:	e1dd16ba 	ldrh	r1, [sp, #106]	; 0x6a
   1351c:	e08f0000 	add	r0, pc, r0
   13520:	ebfffb70 	bl	122e8 <printf@plt>
    if (fields->svc_data_uuid32 != NULL) {
   13524:	e59d3070 	ldr	r3, [sp, #112]	; 0x70
   13528:	e3530000 	cmp	r3, #0
   1352c:	0a000007 	beq	13550 <ble_slave_gap_event+0x500>
        iot_printf("    svc_data_uuid32=");
   13530:	e59f04b4 	ldr	r0, [pc, #1204]	; 139ec <ble_slave_gap_event+0x99c>
   13534:	e08f0000 	add	r0, pc, r0
   13538:	ebfffb6a 	bl	122e8 <printf@plt>
        print_bytes(fields->svc_data_uuid32,
   1353c:	e59d0070 	ldr	r0, [sp, #112]	; 0x70
   13540:	e5dd1074 	ldrb	r1, [sp, #116]	; 0x74
   13544:	ebfffdff 	bl	12d48 <print_bytes>
        iot_printf("\n");
   13548:	e3a0000a 	mov	r0, #10
   1354c:	ebfffabd 	bl	12048 <putchar@plt>
    if (fields->svc_data_uuid128 != NULL) {
   13550:	e59d3078 	ldr	r3, [sp, #120]	; 0x78
   13554:	e3530000 	cmp	r3, #0
   13558:	0a000007 	beq	1357c <ble_slave_gap_event+0x52c>
        iot_printf("    svc_data_uuid128=");
   1355c:	e59f048c 	ldr	r0, [pc, #1164]	; 139f0 <ble_slave_gap_event+0x9a0>
   13560:	e08f0000 	add	r0, pc, r0
   13564:	ebfffb5f 	bl	122e8 <printf@plt>
        print_bytes(fields->svc_data_uuid128,
   13568:	e59d0078 	ldr	r0, [sp, #120]	; 0x78
   1356c:	e5dd107c 	ldrb	r1, [sp, #124]	; 0x7c
   13570:	ebfffdf4 	bl	12d48 <print_bytes>
        iot_printf("\n");
   13574:	e3a0000a 	mov	r0, #10
   13578:	ebfffab2 	bl	12048 <putchar@plt>
    if (fields->uri != NULL) {
   1357c:	e59d3080 	ldr	r3, [sp, #128]	; 0x80
   13580:	e3530000 	cmp	r3, #0
   13584:	0a000007 	beq	135a8 <ble_slave_gap_event+0x558>
        iot_printf("    uri=");
   13588:	e59f0464 	ldr	r0, [pc, #1124]	; 139f4 <ble_slave_gap_event+0x9a4>
   1358c:	e08f0000 	add	r0, pc, r0
   13590:	ebfffb54 	bl	122e8 <printf@plt>
        print_bytes(fields->uri, fields->uri_len);
   13594:	e59d0080 	ldr	r0, [sp, #128]	; 0x80
   13598:	e5dd1084 	ldrb	r1, [sp, #132]	; 0x84
   1359c:	ebfffde9 	bl	12d48 <print_bytes>
        iot_printf("\n");
   135a0:	e3a0000a 	mov	r0, #10
   135a4:	ebfffaa7 	bl	12048 <putchar@plt>
    if (fields->mfg_data != NULL) {
   135a8:	e59d3088 	ldr	r3, [sp, #136]	; 0x88
   135ac:	e3530000 	cmp	r3, #0
   135b0:	0a000007 	beq	135d4 <ble_slave_gap_event+0x584>
        iot_printf("    mfg_data=");
   135b4:	e59f043c 	ldr	r0, [pc, #1084]	; 139f8 <ble_slave_gap_event+0x9a8>
   135b8:	e08f0000 	add	r0, pc, r0
   135bc:	ebfffb49 	bl	122e8 <printf@plt>
        print_bytes(fields->mfg_data, fields->mfg_data_len);
   135c0:	e59d0088 	ldr	r0, [sp, #136]	; 0x88
   135c4:	e5dd108c 	ldrb	r1, [sp, #140]	; 0x8c
   135c8:	ebfffdde 	bl	12d48 <print_bytes>
        iot_printf("\n");
   135cc:	e3a0000a 	mov	r0, #10
   135d0:	ebfffa9c 	bl	12048 <putchar@plt>
					iot_printf("\n");
   135d4:	e3a0000a 	mov	r0, #10
   135d8:	ebfffa9a 	bl	12048 <putchar@plt>
				iot_printf("\n********************end*****************************\n");
   135dc:	e59f0418 	ldr	r0, [pc, #1048]	; 139fc <ble_slave_gap_event+0x9ac>
   135e0:	e08f0000 	add	r0, pc, r0
   135e4:	ebfffb48 	bl	1230c <puts@plt>
	        if (event->disc.event_type == BLE_HCI_ADV_RPT_EVTYPE_DIR_IND) {
   135e8:	e5d43004 	ldrb	r3, [r4, #4]
   135ec:	e3530001 	cmp	r3, #1
   135f0:	1a0000c9 	bne	1391c <ble_slave_gap_event+0x8cc>
	                iot_printf("\nConnectable directed advertising event\n");
   135f4:	e59f0404 	ldr	r0, [pc, #1028]	; 13a00 <ble_slave_gap_event+0x9b0>
   135f8:	e08f0000 	add	r0, pc, r0
   135fc:	ebfffb42 	bl	1230c <puts@plt>
   13600:	ea0000c5 	b	1391c <ble_slave_gap_event+0x8cc>
	    iot_printf("connection updated; status=%d ",
   13604:	e59f03f8 	ldr	r0, [pc, #1016]	; 13a04 <ble_slave_gap_event+0x9b4>
   13608:	e5941004 	ldr	r1, [r4, #4]
   1360c:	e08f0000 	add	r0, pc, r0
   13610:	ebfffb34 	bl	122e8 <printf@plt>
	    rc = ble_gap_conn_find(event->conn_update.conn_handle, &desc);
   13614:	e28d1030 	add	r1, sp, #48	; 0x30
   13618:	e1d400b8 	ldrh	r0, [r4, #8]
   1361c:	eb00198f 	bl	19c60 <ble_gap_conn_find>
	    assert(rc == 0);
   13620:	e2505000 	subs	r5, r0, #0
   13624:	0a000008 	beq	1364c <ble_slave_gap_event+0x5fc>
   13628:	e59f33d8 	ldr	r3, [pc, #984]	; 13a08 <ble_slave_gap_event+0x9b8>
   1362c:	e59f13d8 	ldr	r1, [pc, #984]	; 13a0c <ble_slave_gap_event+0x9bc>
   13630:	e59f03d8 	ldr	r0, [pc, #984]	; 13a10 <ble_slave_gap_event+0x9c0>
   13634:	e08f3003 	add	r3, pc, r3
   13638:	e2833016 	add	r3, r3, #22
   1363c:	e59f23d0 	ldr	r2, [pc, #976]	; 13a14 <ble_slave_gap_event+0x9c4>
   13640:	e08f1001 	add	r1, pc, r1
   13644:	e08f0000 	add	r0, pc, r0
   13648:	ea00003d 	b	13744 <ble_slave_gap_event+0x6f4>
					   desc.sec_state.bonded);
   1364c:	e5dd0030 	ldrb	r0, [sp, #48]	; 0x30
		iot_printf(" conn_itvl=%d conn_latency=%d supervision_timeout=%d "
   13650:	e1dd35b6 	ldrh	r3, [sp, #86]	; 0x56
					   desc.sec_state.bonded);
   13654:	e1a0c120 	lsr	ip, r0, #2
   13658:	e20cc001 	and	ip, ip, #1
		iot_printf(" conn_itvl=%d conn_latency=%d supervision_timeout=%d "
   1365c:	e58dc008 	str	ip, [sp, #8]
					   desc.sec_state.authenticated,
   13660:	e1a0c0a0 	lsr	ip, r0, #1
					   desc.sec_state.encrypted,
   13664:	e2000001 	and	r0, r0, #1
		iot_printf(" conn_itvl=%d conn_latency=%d supervision_timeout=%d "
   13668:	e58d0000 	str	r0, [sp]
   1366c:	e59f03a4 	ldr	r0, [pc, #932]	; 13a18 <ble_slave_gap_event+0x9c8>
					   desc.sec_state.authenticated,
   13670:	e20cc001 	and	ip, ip, #1
		iot_printf(" conn_itvl=%d conn_latency=%d supervision_timeout=%d "
   13674:	e1dd25b4 	ldrh	r2, [sp, #84]	; 0x54
   13678:	e1dd15b2 	ldrh	r1, [sp, #82]	; 0x52
   1367c:	e58dc004 	str	ip, [sp, #4]
   13680:	e08f0000 	add	r0, pc, r0
   13684:	ebfffb17 	bl	122e8 <printf@plt>
	    return 0;
   13688:	ea0000ae 	b	13948 <ble_slave_gap_event+0x8f8>
	    iot_printf("connection update request\n");
   1368c:	e59f0388 	ldr	r0, [pc, #904]	; 13a1c <ble_slave_gap_event+0x9cc>
   13690:	e08f0000 	add	r0, pc, r0
   13694:	ebfffb1c 	bl	1230c <puts@plt>
	    *event->conn_update_req.self_params =
   13698:	e3a0200c 	mov	r2, #12
   1369c:	e5941004 	ldr	r1, [r4, #4]
   136a0:	e5940008 	ldr	r0, [r4, #8]
   136a4:	ebfffa55 	bl	12000 <memcpy@plt>
   136a8:	ea00009b 	b	1391c <ble_slave_gap_event+0x8cc>
	    iot_printf("passkey action event; action=%d",
   136ac:	e59f036c 	ldr	r0, [pc, #876]	; 13a20 <ble_slave_gap_event+0x9d0>
   136b0:	e5d41004 	ldrb	r1, [r4, #4]
   136b4:	e08f0000 	add	r0, pc, r0
   136b8:	ebfffb0a 	bl	122e8 <printf@plt>
	    if (event->passkey.params.action == BLE_SM_IOACT_NUMCMP) {
   136bc:	e5d43004 	ldrb	r3, [r4, #4]
   136c0:	e3530004 	cmp	r3, #4
   136c4:	1a000027 	bne	13768 <ble_slave_gap_event+0x718>
	        iot_printf(" numcmp=%lu",
   136c8:	e59f0354 	ldr	r0, [pc, #852]	; 13a24 <ble_slave_gap_event+0x9d4>
   136cc:	e5941008 	ldr	r1, [r4, #8]
   136d0:	e08f0000 	add	r0, pc, r0
   136d4:	ebfffb03 	bl	122e8 <printf@plt>
   136d8:	ea000022 	b	13768 <ble_slave_gap_event+0x718>
	    iot_printf("discovery complete; reason=%d\n",
   136dc:	e59f0344 	ldr	r0, [pc, #836]	; 13a28 <ble_slave_gap_event+0x9d8>
   136e0:	e5941004 	ldr	r1, [r4, #4]
   136e4:	e08f0000 	add	r0, pc, r0
   136e8:	ea000002 	b	136f8 <ble_slave_gap_event+0x6a8>
	    iot_printf("advertise complete; reason=%d\n",
   136ec:	e59f0338 	ldr	r0, [pc, #824]	; 13a2c <ble_slave_gap_event+0x9dc>
   136f0:	e5941004 	ldr	r1, [r4, #4]
   136f4:	e08f0000 	add	r0, pc, r0
   136f8:	ebfffafa 	bl	122e8 <printf@plt>
   136fc:	ea000086 	b	1391c <ble_slave_gap_event+0x8cc>
	    iot_printf("encryption change event; status=%d ",
   13700:	e59f0328 	ldr	r0, [pc, #808]	; 13a30 <ble_slave_gap_event+0x9e0>
   13704:	e5941004 	ldr	r1, [r4, #4]
   13708:	e08f0000 	add	r0, pc, r0
   1370c:	ebfffaf5 	bl	122e8 <printf@plt>
	    rc = ble_gap_conn_find(event->enc_change.conn_handle, &desc);
   13710:	e28d1030 	add	r1, sp, #48	; 0x30
   13714:	e1d400b8 	ldrh	r0, [r4, #8]
   13718:	eb001950 	bl	19c60 <ble_gap_conn_find>
	    assert(rc == 0);
   1371c:	e3500000 	cmp	r0, #0
   13720:	0a00007d 	beq	1391c <ble_slave_gap_event+0x8cc>
   13724:	e59f3308 	ldr	r3, [pc, #776]	; 13a34 <ble_slave_gap_event+0x9e4>
   13728:	e59f1308 	ldr	r1, [pc, #776]	; 13a38 <ble_slave_gap_event+0x9e8>
   1372c:	e59f0308 	ldr	r0, [pc, #776]	; 13a3c <ble_slave_gap_event+0x9ec>
   13730:	e59f2308 	ldr	r2, [pc, #776]	; 13a40 <ble_slave_gap_event+0x9f0>
   13734:	e08f3003 	add	r3, pc, r3
   13738:	e2833016 	add	r3, r3, #22
   1373c:	e08f1001 	add	r1, pc, r1
   13740:	e08f0000 	add	r0, pc, r0
   13744:	ebfffa69 	bl	120f0 <__assert@plt>
	                   OS_MBUF_PKTLEN(event->notify_rx.om));
   13748:	e5943004 	ldr	r3, [r4, #4]
	                   event->notify_rx.indication,
   1374c:	e5d4200c 	ldrb	r2, [r4, #12]
	    iot_printf("notification rx event; attr_handle=%d indication=%d "
   13750:	e59f02ec 	ldr	r0, [pc, #748]	; 13a44 <ble_slave_gap_event+0x9f4>
   13754:	e1d331b0 	ldrh	r3, [r3, #16]
   13758:	e2022001 	and	r2, r2, #1
   1375c:	e1d410b8 	ldrh	r1, [r4, #8]
   13760:	e08f0000 	add	r0, pc, r0
   13764:	ebfffadf 	bl	122e8 <printf@plt>
	    iot_printf("\n");
   13768:	e3a0000a 	mov	r0, #10
   1376c:	ebfffa35 	bl	12048 <putchar@plt>
   13770:	ea000069 	b	1391c <ble_slave_gap_event+0x8cc>
	                   event->notify_tx.indication);
   13774:	e5d4300c 	ldrb	r3, [r4, #12]
	    iot_printf("notification tx event; status=%d attr_handle=%d "
   13778:	e59f02c8 	ldr	r0, [pc, #712]	; 13a48 <ble_slave_gap_event+0x9f8>
   1377c:	e2033001 	and	r3, r3, #1
   13780:	e1d420ba 	ldrh	r2, [r4, #10]
   13784:	e5941004 	ldr	r1, [r4, #4]
   13788:	e08f0000 	add	r0, pc, r0
   1378c:	ea000033 	b	13860 <ble_slave_gap_event+0x810>
	                   event->subscribe.cur_indicate);
   13790:	e5d40009 	ldrb	r0, [r4, #9]
	    iot_printf("subscribe event; conn_handle=%d attr_handle=%d "
   13794:	e5d43008 	ldrb	r3, [r4, #8]
	                   event->subscribe.cur_indicate);
   13798:	e1a0c1a0 	lsr	ip, r0, #3
   1379c:	e20cc001 	and	ip, ip, #1
	    iot_printf("subscribe event; conn_handle=%d attr_handle=%d "
   137a0:	e1d420b6 	ldrh	r2, [r4, #6]
   137a4:	e1d410b4 	ldrh	r1, [r4, #4]
   137a8:	e58dc00c 	str	ip, [sp, #12]
	                   event->subscribe.prev_indicate,
   137ac:	e1a0c120 	lsr	ip, r0, #2
   137b0:	e20cc001 	and	ip, ip, #1
	    iot_printf("subscribe event; conn_handle=%d attr_handle=%d "
   137b4:	e58dc008 	str	ip, [sp, #8]
	                   event->subscribe.cur_notify,
   137b8:	e1a0c0a0 	lsr	ip, r0, #1
	                   event->subscribe.prev_notify,
   137bc:	e2000001 	and	r0, r0, #1
	    iot_printf("subscribe event; conn_handle=%d attr_handle=%d "
   137c0:	e58d0000 	str	r0, [sp]
   137c4:	e59f0280 	ldr	r0, [pc, #640]	; 13a4c <ble_slave_gap_event+0x9fc>
	                   event->subscribe.cur_notify,
   137c8:	e20cc001 	and	ip, ip, #1
	    iot_printf("subscribe event; conn_handle=%d attr_handle=%d "
   137cc:	e58dc004 	str	ip, [sp, #4]
   137d0:	e08f0000 	add	r0, pc, r0
   137d4:	ebfffac3 	bl	122e8 <printf@plt>
	    if(ble_svc_gatt_changed_val_handle==event->subscribe.attr_handle)
   137d8:	e59f2270 	ldr	r2, [pc, #624]	; 13a50 <ble_slave_gap_event+0xa00>
   137dc:	e1d430b6 	ldrh	r3, [r4, #6]
   137e0:	e7965002 	ldr	r5, [r6, r2]
   137e4:	e1d510b0 	ldrh	r1, [r5]
   137e8:	e1510003 	cmp	r1, r3
   137ec:	1a00004a 	bne	1391c <ble_slave_gap_event+0x8cc>
		    if((event->subscribe.prev_indicate==0)&&(event->subscribe.cur_indicate==1))
   137f0:	e5d43009 	ldrb	r3, [r4, #9]
   137f4:	e203300c 	and	r3, r3, #12
   137f8:	e3530008 	cmp	r3, #8
   137fc:	1a000046 	bne	1391c <ble_slave_gap_event+0x8cc>
			     iot_printf("ble_svc_gatt_changed_val_handle=%d\n",
   13800:	e59f024c 	ldr	r0, [pc, #588]	; 13a54 <ble_slave_gap_event+0xa04>
   13804:	e08f0000 	add	r0, pc, r0
   13808:	ebfffab6 	bl	122e8 <printf@plt>
			    rc=gatt_svr_chr_indicate(ble_conn_handle, ble_svc_gatt_changed_val_handle, ble_indicate, strlen(ble_indicate));
   1380c:	e59f315c 	ldr	r3, [pc, #348]	; 13970 <ble_slave_gap_event+0x920>
	om = ble_hs_mbuf_from_flat((void *)data, (uint16_t)len);
   13810:	e59f0240 	ldr	r0, [pc, #576]	; 13a58 <ble_slave_gap_event+0xa08>
			    rc=gatt_svr_chr_indicate(ble_conn_handle, ble_svc_gatt_changed_val_handle, ble_indicate, strlen(ble_indicate));
   13814:	e7963003 	ldr	r3, [r6, r3]
	om = ble_hs_mbuf_from_flat((void *)data, (uint16_t)len);
   13818:	e3a0100d 	mov	r1, #13
   1381c:	e08f0000 	add	r0, pc, r0
			    rc=gatt_svr_chr_indicate(ble_conn_handle, ble_svc_gatt_changed_val_handle, ble_indicate, strlen(ble_indicate));
   13820:	e1d340b0 	ldrh	r4, [r3]
   13824:	e1d550b0 	ldrh	r5, [r5]
	om = ble_hs_mbuf_from_flat((void *)data, (uint16_t)len);
   13828:	eb0046b1 	bl	252f4 <ble_hs_mbuf_from_flat>
	if(om == NULL)
   1382c:	e2502000 	subs	r2, r0, #0
   13830:	0a00003b 	beq	13924 <ble_slave_gap_event+0x8d4>
	rc = ble_gattc_indicate_custom(conn_handle, chr_val_handle, om);
   13834:	e1a01005 	mov	r1, r5
   13838:	e1a00004 	mov	r0, r4
   1383c:	eb002c27 	bl	1e8e0 <ble_gattc_indicate_custom>
	if(rc)
   13840:	e3500000 	cmp	r0, #0
   13844:	0a000034 	beq	1391c <ble_slave_gap_event+0x8cc>
   13848:	ea000035 	b	13924 <ble_slave_gap_event+0x8d4>
	    iot_printf("mtu update event; conn_handle=%d cid=%d mtu=%d\n",
   1384c:	e59f0208 	ldr	r0, [pc, #520]	; 13a5c <ble_slave_gap_event+0xa0c>
   13850:	e1d430b8 	ldrh	r3, [r4, #8]
   13854:	e1d420b6 	ldrh	r2, [r4, #6]
   13858:	e1d410b4 	ldrh	r1, [r4, #4]
   1385c:	e08f0000 	add	r0, pc, r0
   13860:	ebfffaa0 	bl	122e8 <printf@plt>
   13864:	ea00002c 	b	1391c <ble_slave_gap_event+0x8cc>
	    iot_printf("identity resolved ");
   13868:	e59f01f0 	ldr	r0, [pc, #496]	; 13a60 <ble_slave_gap_event+0xa10>
   1386c:	e08f0000 	add	r0, pc, r0
   13870:	ebfffa9c 	bl	122e8 <printf@plt>
	    rc = ble_gap_conn_find(event->identity_resolved.conn_handle, &desc);
   13874:	e28d1030 	add	r1, sp, #48	; 0x30
   13878:	e1d400b4 	ldrh	r0, [r4, #4]
   1387c:	eb0018f7 	bl	19c60 <ble_gap_conn_find>
	    assert(rc == 0);
   13880:	e3500000 	cmp	r0, #0
   13884:	0a000024 	beq	1391c <ble_slave_gap_event+0x8cc>
   13888:	e59f31d4 	ldr	r3, [pc, #468]	; 13a64 <ble_slave_gap_event+0xa14>
   1388c:	e59f11d4 	ldr	r1, [pc, #468]	; 13a68 <ble_slave_gap_event+0xa18>
   13890:	e59f01d4 	ldr	r0, [pc, #468]	; 13a6c <ble_slave_gap_event+0xa1c>
   13894:	e08f3003 	add	r3, pc, r3
   13898:	e2833016 	add	r3, r3, #22
   1389c:	e59f21cc 	ldr	r2, [pc, #460]	; 13a70 <ble_slave_gap_event+0xa20>
   138a0:	e08f1001 	add	r1, pc, r1
   138a4:	e08f0000 	add	r0, pc, r0
   138a8:	eaffffa5 	b	13744 <ble_slave_gap_event+0x6f4>
	    iot_printf("PHY update complete; status=%d, conn_handle=%d "
   138ac:	e5d4100b 	ldrb	r1, [r4, #11]
   138b0:	e59f01bc 	ldr	r0, [pc, #444]	; 13a74 <ble_slave_gap_event+0xa24>
   138b4:	e5d4300a 	ldrb	r3, [r4, #10]
   138b8:	e1d420b8 	ldrh	r2, [r4, #8]
   138bc:	e08f0000 	add	r0, pc, r0
   138c0:	e58d1000 	str	r1, [sp]
   138c4:	e5941004 	ldr	r1, [r4, #4]
   138c8:	ebfffa86 	bl	122e8 <printf@plt>
   138cc:	ea000012 	b	1391c <ble_slave_gap_event+0x8cc>
	    rc = ble_gap_conn_find(event->repeat_pairing.conn_handle, &desc);
   138d0:	e28d5030 	add	r5, sp, #48	; 0x30
   138d4:	e1a01005 	mov	r1, r5
   138d8:	e1d400b4 	ldrh	r0, [r4, #4]
   138dc:	eb0018df 	bl	19c60 <ble_gap_conn_find>
	    assert(rc == 0);
   138e0:	e3500000 	cmp	r0, #0
   138e4:	0a000008 	beq	1390c <ble_slave_gap_event+0x8bc>
   138e8:	e59f3188 	ldr	r3, [pc, #392]	; 13a78 <ble_slave_gap_event+0xa28>
   138ec:	e59f1188 	ldr	r1, [pc, #392]	; 13a7c <ble_slave_gap_event+0xa2c>
   138f0:	e59f0188 	ldr	r0, [pc, #392]	; 13a80 <ble_slave_gap_event+0xa30>
   138f4:	e08f3003 	add	r3, pc, r3
   138f8:	e2833016 	add	r3, r3, #22
   138fc:	e59f2180 	ldr	r2, [pc, #384]	; 13a84 <ble_slave_gap_event+0xa34>
   13900:	e08f1001 	add	r1, pc, r1
   13904:	e08f0000 	add	r0, pc, r0
   13908:	eaffff8d 	b	13744 <ble_slave_gap_event+0x6f4>
	    ble_store_util_delete_peer(&desc.peer_id_addr);
   1390c:	e285000b 	add	r0, r5, #11
   13910:	eb0061b9 	bl	2bffc <ble_store_util_delete_peer>
	    return BLE_GAP_REPEAT_PAIRING_RETRY;
   13914:	e3a05001 	mov	r5, #1
   13918:	ea00000a 	b	13948 <ble_slave_gap_event+0x8f8>
	    return 0;
   1391c:	e3a05000 	mov	r5, #0
   13920:	ea000008 	b	13948 <ble_slave_gap_event+0x8f8>
			    assert(rc == 0);
   13924:	e59f315c 	ldr	r3, [pc, #348]	; 13a88 <ble_slave_gap_event+0xa38>
   13928:	e59f115c 	ldr	r1, [pc, #348]	; 13a8c <ble_slave_gap_event+0xa3c>
   1392c:	e59f015c 	ldr	r0, [pc, #348]	; 13a90 <ble_slave_gap_event+0xa40>
   13930:	e08f3003 	add	r3, pc, r3
   13934:	e2833016 	add	r3, r3, #22
   13938:	e59f2154 	ldr	r2, [pc, #340]	; 13a94 <ble_slave_gap_event+0xa44>
   1393c:	e08f1001 	add	r1, pc, r1
   13940:	e08f0000 	add	r0, pc, r0
   13944:	eaffff7e 	b	13744 <ble_slave_gap_event+0x6f4>
}
   13948:	e1a00005 	mov	r0, r5
   1394c:	e28dd094 	add	sp, sp, #148	; 0x94
   13950:	e8bd80f0 	pop	{r4, r5, r6, r7, pc}
   13954:	0002c785 	.word	0x0002c785
   13958:	00044f84 	.word	0x00044f84
   1395c:	0002ce13 	.word	0x0002ce13
   13960:	0002c6f9 	.word	0x0002c6f9
   13964:	0002c71b 	.word	0x0002c71b
   13968:	00000178 	.word	0x00000178
   1396c:	0002c6f1 	.word	0x0002c6f1
   13970:	000001a4 	.word	0x000001a4
   13974:	0002c6e8 	.word	0x0002c6e8
   13978:	0002c6ea 	.word	0x0002c6ea
   1397c:	000001e4 	.word	0x000001e4
   13980:	0002c696 	.word	0x0002c696
   13984:	0002c6c2 	.word	0x0002c6c2
   13988:	0002c6b7 	.word	0x0002c6b7
   1398c:	0002fa8a 	.word	0x0002fa8a
   13990:	0002c6cc 	.word	0x0002c6cc
   13994:	0002c6c7 	.word	0x0002c6c7
   13998:	0002c6cd 	.word	0x0002c6cd
   1399c:	0002c6d7 	.word	0x0002c6d7
   139a0:	0002c6e1 	.word	0x0002c6e1
   139a4:	00030e43 	.word	0x00030e43
   139a8:	0002e0a1 	.word	0x0002e0a1
   139ac:	0002c6ca 	.word	0x0002c6ca
   139b0:	00030ddf 	.word	0x00030ddf
   139b4:	0002e03d 	.word	0x0002e03d
   139b8:	0002c67f 	.word	0x0002c67f
   139bc:	00030d7b 	.word	0x00030d7b
   139c0:	0002dfd9 	.word	0x0002dfd9
   139c4:	0002c634 	.word	0x0002c634
   139c8:	00030d13 	.word	0x00030d13
   139cc:	0002df71 	.word	0x0002df71
   139d0:	0002c5e6 	.word	0x0002c5e6
   139d4:	0002c5b8 	.word	0x0002c5b8
   139d8:	0002c5b3 	.word	0x0002c5b3
   139dc:	0002c59d 	.word	0x0002c59d
   139e0:	0002c582 	.word	0x0002c582
   139e4:	0002c54f 	.word	0x0002c54f
   139e8:	0002c54a 	.word	0x0002c54a
   139ec:	0002c547 	.word	0x0002c547
   139f0:	0002c530 	.word	0x0002c530
   139f4:	0002c51a 	.word	0x0002c51a
   139f8:	0002c4f7 	.word	0x0002c4f7
   139fc:	0002c4dd 	.word	0x0002c4dd
   13a00:	0002c4fb 	.word	0x0002c4fb
   13a04:	0002c50f 	.word	0x0002c50f
   13a08:	0002bffb 	.word	0x0002bffb
   13a0c:	0002c10c 	.word	0x0002c10c
   13a10:	0002c4f6 	.word	0x0002c4f6
   13a14:	00000297 	.word	0x00000297
   13a18:	0002c4c2 	.word	0x0002c4c2
   13a1c:	0002c510 	.word	0x0002c510
   13a20:	0002c506 	.word	0x0002c506
   13a24:	0002c50a 	.word	0x0002c50a
   13a28:	0002c502 	.word	0x0002c502
   13a2c:	0002c511 	.word	0x0002c511
   13a30:	0002c51c 	.word	0x0002c51c
   13a34:	0002befb 	.word	0x0002befb
   13a38:	0002c010 	.word	0x0002c010
   13a3c:	0002c3fa 	.word	0x0002c3fa
   13a40:	000002d1 	.word	0x000002d1
   13a44:	0002c4e8 	.word	0x0002c4e8
   13a48:	0002c501 	.word	0x0002c501
   13a4c:	0002c4f8 	.word	0x0002c4f8
   13a50:	00000184 	.word	0x00000184
   13a54:	0002c520 	.word	0x0002c520
   13a58:	0002c52c 	.word	0x0002c52c
   13a5c:	0002c4fa 	.word	0x0002c4fa
   13a60:	0002c51a 	.word	0x0002c51a
   13a64:	0002bd9b 	.word	0x0002bd9b
   13a68:	0002beac 	.word	0x0002beac
   13a6c:	0002c296 	.word	0x0002c296
   13a70:	0000030d 	.word	0x0000030d
   13a74:	0002c4dd 	.word	0x0002c4dd
   13a78:	0002bd3b 	.word	0x0002bd3b
   13a7c:	0002be4c 	.word	0x0002be4c
   13a80:	0002c236 	.word	0x0002c236
   13a84:	00000322 	.word	0x00000322
   13a88:	0002bcff 	.word	0x0002bcff
   13a8c:	0002be10 	.word	0x0002be10
   13a90:	0002c1fa 	.word	0x0002c1fa
   13a94:	000002fd 	.word	0x000002fd

00013a98 <get_ble_addr>:
	ble_hs_id_addr(BLE_ADDR_PUBLIC,&addr, NULL);
   13a98:	e3a02000 	mov	r2, #0
{
   13a9c:	e92d4013 	push	{r0, r1, r4, lr}
   13aa0:	e1a04000 	mov	r4, r0
	ble_hs_id_addr(BLE_ADDR_PUBLIC,&addr, NULL);
   13aa4:	e28d1004 	add	r1, sp, #4
   13aa8:	e1a00002 	mov	r0, r2
   13aac:	eb00451a 	bl	24f1c <ble_hs_id_addr>
	memcpy(ble_addr, addr, 6);
   13ab0:	e3a02006 	mov	r2, #6
   13ab4:	e59d1004 	ldr	r1, [sp, #4]
   13ab8:	e1a00004 	mov	r0, r4
   13abc:	ebfff94f 	bl	12000 <memcpy@plt>
}
   13ac0:	e28dd008 	add	sp, sp, #8
   13ac4:	e8bd8010 	pop	{r4, pc}

00013ac8 <gatt_svr_chr_notify>:
	om = ble_hs_mbuf_from_flat((void *)data, (uint16_t)len);
   13ac8:	e1a03803 	lsl	r3, r3, #16
{
   13acc:	e92d4070 	push	{r4, r5, r6, lr}
   13ad0:	e1a04000 	mov	r4, r0
   13ad4:	e1a05001 	mov	r5, r1
	om = ble_hs_mbuf_from_flat((void *)data, (uint16_t)len);
   13ad8:	e1a00002 	mov	r0, r2
   13adc:	e1a01823 	lsr	r1, r3, #16
   13ae0:	eb004603 	bl	252f4 <ble_hs_mbuf_from_flat>
	if(om == NULL)
   13ae4:	e2502000 	subs	r2, r0, #0
   13ae8:	0a000006 	beq	13b08 <gatt_svr_chr_notify+0x40>
	rc = ble_gattc_notify_custom(conn_handle, chr_val_handle, om);
   13aec:	e1a01005 	mov	r1, r5
   13af0:	e1a00004 	mov	r0, r4
   13af4:	eb002b48 	bl	1e81c <ble_gattc_notify_custom>
	if(rc)
   13af8:	e3500000 	cmp	r0, #0
	return 0;
   13afc:	13e00001 	mvnne	r0, #1
   13b00:	03a00000 	moveq	r0, #0
   13b04:	e8bd8070 	pop	{r4, r5, r6, pc}
		return -1;
   13b08:	e3e00000 	mvn	r0, #0
}
   13b0c:	e8bd8070 	pop	{r4, r5, r6, pc}

00013b10 <ble_svc_gatt_access>:
{
   13b10:	e92d43f0 	push	{r4, r5, r6, r7, r8, r9, lr}
   13b14:	e59f7460 	ldr	r7, [pc, #1120]	; 13f7c <ble_svc_gatt_access+0x46c>
   13b18:	e24ddf43 	sub	sp, sp, #268	; 0x10c
	uint8_t data[255] = {0};
   13b1c:	e28d5008 	add	r5, sp, #8
{
   13b20:	e1a04002 	mov	r4, r2
	uint8_t data[255] = {0};
   13b24:	e3a01000 	mov	r1, #0
   13b28:	e3a020ff 	mov	r2, #255	; 0xff
{
   13b2c:	e1a08000 	mov	r8, r0
	uint8_t data[255] = {0};
   13b30:	e1a00005 	mov	r0, r5
   13b34:	ebfff9bb 	bl	12228 <memset@plt>
	uint16_t len = 0;
   13b38:	e3a03000 	mov	r3, #0
   13b3c:	e14530b2 	strh	r3, [r5, #-2]
	uuid = ble_uuid_u16(ctxt->chr->uuid);
   13b40:	e5943008 	ldr	r3, [r4, #8]
{
   13b44:	e08f7007 	add	r7, pc, r7
	uuid = ble_uuid_u16(ctxt->chr->uuid);
   13b48:	e5930000 	ldr	r0, [r3]
   13b4c:	eb0061f4 	bl	2c324 <ble_uuid_u16>
	if(uuid == BLE_ATBM_SMART_DATA){
   13b50:	e59f3428 	ldr	r3, [pc, #1064]	; 13f80 <ble_svc_gatt_access+0x470>
   13b54:	e1500003 	cmp	r0, r3
   13b58:	1a000104 	bne	13f70 <ble_svc_gatt_access+0x460>
		rc = gatt_svr_chr_write(ctxt->om, 0, 255, data, &len);
   13b5c:	e5940004 	ldr	r0, [r4, #4]
    if (om_len < min_len || om_len > max_len) {
   13b60:	e1d031b0 	ldrh	r3, [r0, #16]
   13b64:	e35300ff 	cmp	r3, #255	; 0xff
        return BLE_ATT_ERR_INVALID_ATTR_VALUE_LEN;
   13b68:	83a0000d 	movhi	r0, #13
    if (om_len < min_len || om_len > max_len) {
   13b6c:	8a000100 	bhi	13f74 <ble_svc_gatt_access+0x464>
   13b70:	e2456002 	sub	r6, r5, #2
    rc = ble_hs_mbuf_to_flat(om, dst, max_len, len);
   13b74:	e1a03006 	mov	r3, r6
   13b78:	e3a020ff 	mov	r2, #255	; 0xff
   13b7c:	e1a01005 	mov	r1, r5
   13b80:	eb0045ec 	bl	25338 <ble_hs_mbuf_to_flat>
    if (rc != 0) {
   13b84:	e2506000 	subs	r6, r0, #0
        return BLE_ATT_ERR_UNLIKELY;
   13b88:	13a0000e 	movne	r0, #14
    if (rc != 0) {
   13b8c:	1a0000f8 	bne	13f74 <ble_svc_gatt_access+0x464>
		iot_printf("Len=%d step %d\n", len, ble_smart_info.step);
   13b90:	e59f33ec 	ldr	r3, [pc, #1004]	; 13f84 <ble_svc_gatt_access+0x474>
   13b94:	e59f03ec 	ldr	r0, [pc, #1004]	; 13f88 <ble_svc_gatt_access+0x478>
   13b98:	e7974003 	ldr	r4, [r7, r3]
   13b9c:	e15510b2 	ldrh	r1, [r5, #-2]
   13ba0:	e5d42064 	ldrb	r2, [r4, #100]	; 0x64
   13ba4:	e08f0000 	add	r0, pc, r0
   13ba8:	ebfff9ce 	bl	122e8 <printf@plt>
		iot_printf("att=");
   13bac:	e59f03d8 	ldr	r0, [pc, #984]	; 13f8c <ble_svc_gatt_access+0x47c>
			iot_printf("0x%x ", data[i]);
   13bb0:	e59f93d8 	ldr	r9, [pc, #984]	; 13f90 <ble_svc_gatt_access+0x480>
		iot_printf("att=");
   13bb4:	e08f0000 	add	r0, pc, r0
   13bb8:	ebfff9ca 	bl	122e8 <printf@plt>
			iot_printf("0x%x ", data[i]);
   13bbc:	e08f9009 	add	r9, pc, r9
		for(i=0;i<len;i++)
   13bc0:	e15530b2 	ldrh	r3, [r5, #-2]
   13bc4:	e1a02806 	lsl	r2, r6, #16
   13bc8:	e1530822 	cmp	r3, r2, lsr #16
   13bcc:	9a000007 	bls	13bf0 <ble_svc_gatt_access+0xe0>
			iot_printf("0x%x ", data[i]);
   13bd0:	e28d3f42 	add	r3, sp, #264	; 0x108
   13bd4:	e0833006 	add	r3, r3, r6
   13bd8:	e5531100 	ldrb	r1, [r3, #-256]	; 0xffffff00
   13bdc:	e1a00009 	mov	r0, r9
		for(i=0;i<len;i++)
   13be0:	e2866001 	add	r6, r6, #1
			iot_printf("0x%x ", data[i]);
   13be4:	ebfff9bf 	bl	122e8 <printf@plt>
		for(i=0;i<len;i++)
   13be8:	e20660ff 	and	r6, r6, #255	; 0xff
   13bec:	eafffff3 	b	13bc0 <ble_svc_gatt_access+0xb0>
		iot_printf("\n");
   13bf0:	e3a0000a 	mov	r0, #10
   13bf4:	ebfff913 	bl	12048 <putchar@plt>
		if(((memcmp(data, "recv ok", strlen("recv ok"))) == 0) && (ble_smart_info.step == 4)){
   13bf8:	e59f1394 	ldr	r1, [pc, #916]	; 13f94 <ble_svc_gatt_access+0x484>
   13bfc:	e3a02007 	mov	r2, #7
   13c00:	e08f1001 	add	r1, pc, r1
   13c04:	e1a00005 	mov	r0, r5
   13c08:	ebfff992 	bl	12258 <memcmp@plt>
   13c0c:	e3500000 	cmp	r0, #0
   13c10:	1a000008 	bne	13c38 <ble_svc_gatt_access+0x128>
   13c14:	e5d43064 	ldrb	r3, [r4, #100]	; 0x64
   13c18:	e3530004 	cmp	r3, #4
   13c1c:	1a000005 	bne	13c38 <ble_svc_gatt_access+0x128>
			ble_npl_sem_release(&hci_smt_sem);
   13c20:	e59f0370 	ldr	r0, [pc, #880]	; 13f98 <ble_svc_gatt_access+0x488>
			ble_smart_info.step = BLE_SMART_CFG_STATUS_END;
   13c24:	e3e03000 	mvn	r3, #0
			ble_npl_sem_release(&hci_smt_sem);
   13c28:	e08f0000 	add	r0, pc, r0
   13c2c:	e2800004 	add	r0, r0, #4
			ble_smart_info.step = BLE_SMART_CFG_STATUS_END;
   13c30:	e5c43064 	strb	r3, [r4, #100]	; 0x64
			ble_npl_sem_release(&hci_smt_sem);
   13c34:	ebfffbe3 	bl	12bc8 <ble_npl_sem_release>
		if(ble_smart_info.step == BLE_SMART_CFG_STATUS_END){
   13c38:	e5d43064 	ldrb	r3, [r4, #100]	; 0x64
   13c3c:	e35300ff 	cmp	r3, #255	; 0xff
   13c40:	0a0000ca 	beq	13f70 <ble_svc_gatt_access+0x460>
		switch(ble_smart_info.step)
   13c44:	e3530003 	cmp	r3, #3
   13c48:	908ff103 	addls	pc, pc, r3, lsl #2
   13c4c:	ea00009c 	b	13ec4 <ble_svc_gatt_access+0x3b4>
   13c50:	ea000002 	b	13c60 <ble_svc_gatt_access+0x150>
   13c54:	ea000026 	b	13cf4 <ble_svc_gatt_access+0x1e4>
   13c58:	ea000043 	b	13d6c <ble_svc_gatt_access+0x25c>
   13c5c:	ea00007a 	b	13e4c <ble_svc_gatt_access+0x33c>
				if((memcmp(data,"ssid",strlen("ssid"))) == 0){
   13c60:	e59f1334 	ldr	r1, [pc, #820]	; 13f9c <ble_svc_gatt_access+0x48c>
   13c64:	e3a02004 	mov	r2, #4
   13c68:	e08f1001 	add	r1, pc, r1
   13c6c:	e1a00005 	mov	r0, r5
   13c70:	ebfff978 	bl	12258 <memcmp@plt>
   13c74:	e3500000 	cmp	r0, #0
   13c78:	1a0000bc 	bne	13f70 <ble_svc_gatt_access+0x460>
					if(len == 6){
   13c7c:	e15530b2 	ldrh	r3, [r5, #-2]
   13c80:	e3530006 	cmp	r3, #6
						ble_smart_info.ssid_len = (data[5] - '0');
   13c84:	05dd300d 	ldrbeq	r3, [sp, #13]
   13c88:	02433030 	subeq	r3, r3, #48	; 0x30
					if(len == 6){
   13c8c:	0a000007 	beq	13cb0 <ble_svc_gatt_access+0x1a0>
					else if(len == 7){
   13c90:	e3530007 	cmp	r3, #7
   13c94:	1a000006 	bne	13cb4 <ble_svc_gatt_access+0x1a4>
						ble_smart_info.ssid_len = 10*(data[5] - '0') + (data[6] - '0');
   13c98:	e5dd300d 	ldrb	r3, [sp, #13]
   13c9c:	e3a0100a 	mov	r1, #10
   13ca0:	e2432030 	sub	r2, r3, #48	; 0x30
   13ca4:	e5dd300e 	ldrb	r3, [sp, #14]
   13ca8:	e2433030 	sub	r3, r3, #48	; 0x30
   13cac:	e0233192 	mla	r3, r2, r1, r3
   13cb0:	e5c43060 	strb	r3, [r4, #96]	; 0x60
					iot_printf("ble ssid_len = %d\n",ble_smart_info.ssid_len);
   13cb4:	e59f02e4 	ldr	r0, [pc, #740]	; 13fa0 <ble_svc_gatt_access+0x490>
   13cb8:	e5d41060 	ldrb	r1, [r4, #96]	; 0x60
   13cbc:	e08f0000 	add	r0, pc, r0
   13cc0:	ebfff988 	bl	122e8 <printf@plt>
					if(ble_smart_info.ssid_len > 32){					
   13cc4:	e5d43060 	ldrb	r3, [r4, #96]	; 0x60
   13cc8:	e3530020 	cmp	r3, #32
						ble_smart_info.step =1;
   13ccc:	93a03001 	movls	r3, #1
					if(ble_smart_info.ssid_len > 32){					
   13cd0:	9a00005b 	bls	13e44 <ble_svc_gatt_access+0x334>
						iot_printf("ble ssid_len too big error\n");
   13cd4:	e59f02c8 	ldr	r0, [pc, #712]	; 13fa4 <ble_svc_gatt_access+0x494>
   13cd8:	e08f0000 	add	r0, pc, r0
   13cdc:	ebfff98a 	bl	1230c <puts@plt>
						ble_npl_sem_release(&hci_smt_sem);
   13ce0:	e59f02c0 	ldr	r0, [pc, #704]	; 13fa8 <ble_svc_gatt_access+0x498>
						ble_smart_info.step = BLE_SMART_CFG_STATUS_SSID_LEN_ERR;
   13ce4:	e3e0300d 	mvn	r3, #13
   13ce8:	e5c43064 	strb	r3, [r4, #100]	; 0x64
						ble_npl_sem_release(&hci_smt_sem);
   13cec:	e08f0000 	add	r0, pc, r0
   13cf0:	ea00001a 	b	13d60 <ble_svc_gatt_access+0x250>
				if((ble_smart_info.ssid_cnt + len <= ble_smart_info.ssid_len)){
   13cf4:	e5d40062 	ldrb	r0, [r4, #98]	; 0x62
   13cf8:	e15560b2 	ldrh	r6, [r5, #-2]
   13cfc:	e5d43060 	ldrb	r3, [r4, #96]	; 0x60
   13d00:	e0862000 	add	r2, r6, r0
   13d04:	e1520003 	cmp	r2, r3
   13d08:	ca000010 	bgt	13d50 <ble_svc_gatt_access+0x240>
					memcpy(&ble_smart_info.ssid[ble_smart_info.ssid_cnt], data, len);
   13d0c:	e1a02006 	mov	r2, r6
   13d10:	e1a01005 	mov	r1, r5
   13d14:	e0840000 	add	r0, r4, r0
   13d18:	ebfff8b8 	bl	12000 <memcpy@plt>
					ble_smart_info.ssid_cnt += len;
   13d1c:	e5d42062 	ldrb	r2, [r4, #98]	; 0x62
				if(ble_smart_info.ssid_cnt == ble_smart_info.ssid_len){
   13d20:	e5d43060 	ldrb	r3, [r4, #96]	; 0x60
					ble_smart_info.ssid_cnt += len;
   13d24:	e0822006 	add	r2, r2, r6
   13d28:	e20220ff 	and	r2, r2, #255	; 0xff
				if(ble_smart_info.ssid_cnt == ble_smart_info.ssid_len){
   13d2c:	e1530002 	cmp	r3, r2
					ble_smart_info.ssid_cnt += len;
   13d30:	e5c42062 	strb	r2, [r4, #98]	; 0x62
				if(ble_smart_info.ssid_cnt == ble_smart_info.ssid_len){
   13d34:	1a000062 	bne	13ec4 <ble_svc_gatt_access+0x3b4>
					iot_printf("ble ssid = %s\n", ble_smart_info.ssid);
   13d38:	e59f026c 	ldr	r0, [pc, #620]	; 13fac <ble_svc_gatt_access+0x49c>
					ble_smart_info.step =2;
   13d3c:	e3a03002 	mov	r3, #2
   13d40:	e5c43064 	strb	r3, [r4, #100]	; 0x64
					iot_printf("ble ssid = %s\n", ble_smart_info.ssid);
   13d44:	e1a01004 	mov	r1, r4
   13d48:	e08f0000 	add	r0, pc, r0
   13d4c:	ea00005b 	b	13ec0 <ble_svc_gatt_access+0x3b0>
					ble_npl_sem_release(&hci_smt_sem);
   13d50:	e59f0258 	ldr	r0, [pc, #600]	; 13fb0 <ble_svc_gatt_access+0x4a0>
					ble_smart_info.step = BLE_SMART_CFG_STATUS_SSID_ERR;
   13d54:	e3e0300c 	mvn	r3, #12
					ble_npl_sem_release(&hci_smt_sem);
   13d58:	e08f0000 	add	r0, pc, r0
					ble_smart_info.step = BLE_SMART_CFG_STATUS_SSID_ERR;
   13d5c:	e5c43064 	strb	r3, [r4, #100]	; 0x64
					ble_npl_sem_release(&hci_smt_sem);
   13d60:	e2800004 	add	r0, r0, #4
   13d64:	ebfffb97 	bl	12bc8 <ble_npl_sem_release>
					break;
   13d68:	ea000055 	b	13ec4 <ble_svc_gatt_access+0x3b4>
				if((memcmp(data, "pwd", strlen("pwd"))) == 0){
   13d6c:	e59f1240 	ldr	r1, [pc, #576]	; 13fb4 <ble_svc_gatt_access+0x4a4>
   13d70:	e3a02003 	mov	r2, #3
   13d74:	e08f1001 	add	r1, pc, r1
   13d78:	e1a00005 	mov	r0, r5
   13d7c:	ebfff935 	bl	12258 <memcmp@plt>
   13d80:	e3500000 	cmp	r0, #0
   13d84:	1a000079 	bne	13f70 <ble_svc_gatt_access+0x460>
					if(len == 5){
   13d88:	e15530b2 	ldrh	r3, [r5, #-2]
   13d8c:	e3530005 	cmp	r3, #5
						ble_smart_info.pwd_len = (data[4] - '0');
   13d90:	05dd300c 	ldrbeq	r3, [sp, #12]
   13d94:	02433030 	subeq	r3, r3, #48	; 0x30
					if(len == 5){
   13d98:	0a000007 	beq	13dbc <ble_svc_gatt_access+0x2ac>
					else if(len == 6){
   13d9c:	e3530006 	cmp	r3, #6
   13da0:	1a000006 	bne	13dc0 <ble_svc_gatt_access+0x2b0>
						ble_smart_info.pwd_len = 10*(data[4] - '0') + (data[5] - '0');
   13da4:	e5dd300c 	ldrb	r3, [sp, #12]
   13da8:	e3a0100a 	mov	r1, #10
   13dac:	e2432030 	sub	r2, r3, #48	; 0x30
   13db0:	e5dd300d 	ldrb	r3, [sp, #13]
   13db4:	e2433030 	sub	r3, r3, #48	; 0x30
   13db8:	e0233192 	mla	r3, r2, r1, r3
   13dbc:	e5c43061 	strb	r3, [r4, #97]	; 0x61
					iot_printf("ble pwd_len = %d\n",ble_smart_info.pwd_len);
   13dc0:	e59f01f0 	ldr	r0, [pc, #496]	; 13fb8 <ble_svc_gatt_access+0x4a8>
   13dc4:	e5d41061 	ldrb	r1, [r4, #97]	; 0x61
   13dc8:	e08f0000 	add	r0, pc, r0
   13dcc:	ebfff945 	bl	122e8 <printf@plt>
					if(ble_smart_info.pwd_len > 64){					
   13dd0:	e5d43061 	ldrb	r3, [r4, #97]	; 0x61
   13dd4:	e3530040 	cmp	r3, #64	; 0x40
   13dd8:	9a000007 	bls	13dfc <ble_svc_gatt_access+0x2ec>
						iot_printf("ble pwd_len too big error\n");
   13ddc:	e59f01d8 	ldr	r0, [pc, #472]	; 13fbc <ble_svc_gatt_access+0x4ac>
   13de0:	e08f0000 	add	r0, pc, r0
   13de4:	ebfff948 	bl	1230c <puts@plt>
						ble_npl_sem_release(&hci_smt_sem);
   13de8:	e59f01d0 	ldr	r0, [pc, #464]	; 13fc0 <ble_svc_gatt_access+0x4b0>
						ble_smart_info.step = BLE_SMART_CFG_STATUS_PWD_LEN_ERR;
   13dec:	e3e0300b 	mvn	r3, #11
   13df0:	e5c43064 	strb	r3, [r4, #100]	; 0x64
						ble_npl_sem_release(&hci_smt_sem);
   13df4:	e08f0000 	add	r0, pc, r0
   13df8:	eaffffd8 	b	13d60 <ble_svc_gatt_access+0x250>
					else if((ble_smart_info.pwd_len < 5)&&(ble_smart_info.pwd_len > 0)){					
   13dfc:	e2432001 	sub	r2, r3, #1
   13e00:	e3520003 	cmp	r2, #3
   13e04:	8a000007 	bhi	13e28 <ble_svc_gatt_access+0x318>
						iot_printf("ble pwd_len too short error\n");
   13e08:	e59f01b4 	ldr	r0, [pc, #436]	; 13fc4 <ble_svc_gatt_access+0x4b4>
   13e0c:	e08f0000 	add	r0, pc, r0
   13e10:	ebfff93d 	bl	1230c <puts@plt>
						ble_npl_sem_release(&hci_smt_sem);
   13e14:	e59f01ac 	ldr	r0, [pc, #428]	; 13fc8 <ble_svc_gatt_access+0x4b8>
						ble_smart_info.step = BLE_SMART_CFG_STATUS_PWD_LEN_ERR;
   13e18:	e3e0300b 	mvn	r3, #11
   13e1c:	e5c43064 	strb	r3, [r4, #100]	; 0x64
						ble_npl_sem_release(&hci_smt_sem);
   13e20:	e08f0000 	add	r0, pc, r0
   13e24:	eaffffcd 	b	13d60 <ble_svc_gatt_access+0x250>
					else if(ble_smart_info.pwd_len == 0){
   13e28:	e3530000 	cmp	r3, #0
						ble_smart_info.step =3;
   13e2c:	13a03003 	movne	r3, #3
					else if(ble_smart_info.pwd_len == 0){
   13e30:	1a000003 	bne	13e44 <ble_svc_gatt_access+0x334>
						iot_printf("ble pwd_len is empty\n");
   13e34:	e59f0190 	ldr	r0, [pc, #400]	; 13fcc <ble_svc_gatt_access+0x4bc>
   13e38:	e08f0000 	add	r0, pc, r0
   13e3c:	ebfff932 	bl	1230c <puts@plt>
						ble_smart_info.step =4;
   13e40:	e3a03004 	mov	r3, #4
						ble_smart_info.step =3;
   13e44:	e5c43064 	strb	r3, [r4, #100]	; 0x64
   13e48:	ea00001d 	b	13ec4 <ble_svc_gatt_access+0x3b4>
				if((ble_smart_info.pwd_cnt + len <= ble_smart_info.pwd_len)){
   13e4c:	e5d40063 	ldrb	r0, [r4, #99]	; 0x63
   13e50:	e15560b2 	ldrh	r6, [r5, #-2]
   13e54:	e5d43061 	ldrb	r3, [r4, #97]	; 0x61
   13e58:	e0862000 	add	r2, r6, r0
   13e5c:	e1520003 	cmp	r2, r3
   13e60:	ca000011 	bgt	13eac <ble_svc_gatt_access+0x39c>
					memcpy(&ble_smart_info.pwd[ble_smart_info.pwd_cnt], data, len);
   13e64:	e2800020 	add	r0, r0, #32
   13e68:	e1a02006 	mov	r2, r6
   13e6c:	e1a01005 	mov	r1, r5
   13e70:	e0840000 	add	r0, r4, r0
   13e74:	ebfff861 	bl	12000 <memcpy@plt>
					ble_smart_info.pwd_cnt += len;
   13e78:	e5d42063 	ldrb	r2, [r4, #99]	; 0x63
				if(ble_smart_info.pwd_cnt == ble_smart_info.pwd_len){
   13e7c:	e5d43061 	ldrb	r3, [r4, #97]	; 0x61
					ble_smart_info.pwd_cnt += len;
   13e80:	e0822006 	add	r2, r2, r6
   13e84:	e20220ff 	and	r2, r2, #255	; 0xff
				if(ble_smart_info.pwd_cnt == ble_smart_info.pwd_len){
   13e88:	e1530002 	cmp	r3, r2
					ble_smart_info.pwd_cnt += len;
   13e8c:	e5c42063 	strb	r2, [r4, #99]	; 0x63
				if(ble_smart_info.pwd_cnt == ble_smart_info.pwd_len){
   13e90:	1a00000b 	bne	13ec4 <ble_svc_gatt_access+0x3b4>
					iot_printf("ble pwd = %s\n", ble_smart_info.ssid);
   13e94:	e59f0134 	ldr	r0, [pc, #308]	; 13fd0 <ble_svc_gatt_access+0x4c0>
					ble_smart_info.step =4;
   13e98:	e3a03004 	mov	r3, #4
   13e9c:	e5c43064 	strb	r3, [r4, #100]	; 0x64
					iot_printf("ble pwd = %s\n", ble_smart_info.ssid);
   13ea0:	e1a01004 	mov	r1, r4
   13ea4:	e08f0000 	add	r0, pc, r0
   13ea8:	ea000004 	b	13ec0 <ble_svc_gatt_access+0x3b0>
					ble_npl_sem_release(&hci_smt_sem);
   13eac:	e59f0120 	ldr	r0, [pc, #288]	; 13fd4 <ble_svc_gatt_access+0x4c4>
					ble_smart_info.step = BLE_SMART_CFG_STATUS_PWD_ERR;
   13eb0:	e3e0300a 	mvn	r3, #10
   13eb4:	e5c43064 	strb	r3, [r4, #100]	; 0x64
					ble_npl_sem_release(&hci_smt_sem);
   13eb8:	e08f0000 	add	r0, pc, r0
   13ebc:	eaffffa7 	b	13d60 <ble_svc_gatt_access+0x250>
					iot_printf("ble pwd = %s\n", ble_smart_info.ssid);
   13ec0:	ebfff908 	bl	122e8 <printf@plt>
		if(ble_smart_info.step == 5){
   13ec4:	e5d43064 	ldrb	r3, [r4, #100]	; 0x64
   13ec8:	e3530005 	cmp	r3, #5
   13ecc:	1a000008 	bne	13ef4 <ble_svc_gatt_access+0x3e4>
			iot_printf("connection, notify success\n");
   13ed0:	e59f0100 	ldr	r0, [pc, #256]	; 13fd8 <ble_svc_gatt_access+0x4c8>
   13ed4:	e08f0000 	add	r0, pc, r0
   13ed8:	ebfff90b 	bl	1230c <puts@plt>
			gatt_svr_chr_notify(conn_handle, blesmt_notify_handle, wifi_conn_ok, strlen(wifi_conn_ok));
   13edc:	e59f30f8 	ldr	r3, [pc, #248]	; 13fdc <ble_svc_gatt_access+0x4cc>
   13ee0:	e59f20f8 	ldr	r2, [pc, #248]	; 13fe0 <ble_svc_gatt_access+0x4d0>
   13ee4:	e7971003 	ldr	r1, [r7, r3]
   13ee8:	e08f2002 	add	r2, pc, r2
   13eec:	e3a03002 	mov	r3, #2
   13ef0:	ea00001b 	b	13f64 <ble_svc_gatt_access+0x454>
		else if(ble_smart_info.step == BLE_SMART_CFG_SSID_PWD_TRANS_END){   //wait
   13ef4:	e35300fe 	cmp	r3, #254	; 0xfe
   13ef8:	1a000005 	bne	13f14 <ble_svc_gatt_access+0x404>
			iot_printf("connection, notify trans done\n");
   13efc:	e59f00e0 	ldr	r0, [pc, #224]	; 13fe4 <ble_svc_gatt_access+0x4d4>
   13f00:	e08f0000 	add	r0, pc, r0
   13f04:	ebfff900 	bl	1230c <puts@plt>
			ble_npl_sem_release(&hci_smt_sem);
   13f08:	e59f00d8 	ldr	r0, [pc, #216]	; 13fe8 <ble_svc_gatt_access+0x4d8>
   13f0c:	e08f0000 	add	r0, pc, r0
   13f10:	ea000006 	b	13f30 <ble_svc_gatt_access+0x420>
		else if(ble_smart_info.step == 4){
   13f14:	e3530004 	cmp	r3, #4
   13f18:	1a000007 	bne	13f3c <ble_svc_gatt_access+0x42c>
			iot_printf("connection, notify success\n");
   13f1c:	e59f00c8 	ldr	r0, [pc, #200]	; 13fec <ble_svc_gatt_access+0x4dc>
   13f20:	e08f0000 	add	r0, pc, r0
   13f24:	ebfff8f8 	bl	1230c <puts@plt>
			ble_npl_sem_release(&hci_smt_sem);
   13f28:	e59f00c0 	ldr	r0, [pc, #192]	; 13ff0 <ble_svc_gatt_access+0x4e0>
   13f2c:	e08f0000 	add	r0, pc, r0
   13f30:	e2800004 	add	r0, r0, #4
   13f34:	ebfffb23 	bl	12bc8 <ble_npl_sem_release>
   13f38:	ea00000c 	b	13f70 <ble_svc_gatt_access+0x460>
		else if(ble_smart_info.step >= BLE_SMART_CFG_STATUS_BUSY){
   13f3c:	e35300ef 	cmp	r3, #239	; 0xef
   13f40:	9a00000a 	bls	13f70 <ble_svc_gatt_access+0x460>
				iot_printf("connection, notify wait failed\n");
   13f44:	e59f00a8 	ldr	r0, [pc, #168]	; 13ff4 <ble_svc_gatt_access+0x4e4>
   13f48:	e08f0000 	add	r0, pc, r0
   13f4c:	ebfff8ee 	bl	1230c <puts@plt>
			gatt_svr_chr_notify(conn_handle, blesmt_notify_handle, wifi_conn_wait, strlen(wifi_conn_wait));
   13f50:	e59f3084 	ldr	r3, [pc, #132]	; 13fdc <ble_svc_gatt_access+0x4cc>
   13f54:	e59f209c 	ldr	r2, [pc, #156]	; 13ff8 <ble_svc_gatt_access+0x4e8>
   13f58:	e7971003 	ldr	r1, [r7, r3]
   13f5c:	e08f2002 	add	r2, pc, r2
   13f60:	e3a03002 	mov	r3, #2
   13f64:	e1d110b0 	ldrh	r1, [r1]
   13f68:	e1a00008 	mov	r0, r8
   13f6c:	ebfffed5 	bl	13ac8 <gatt_svr_chr_notify>
	return 0;
   13f70:	e3a00000 	mov	r0, #0
}
   13f74:	e28ddf43 	add	sp, sp, #268	; 0x10c
   13f78:	e8bd83f0 	pop	{r4, r5, r6, r7, r8, r9, pc}
   13f7c:	000444b4 	.word	0x000444b4
   13f80:	00002a8a 	.word	0x00002a8a
   13f84:	00000278 	.word	0x00000278
   13f88:	0002c355 	.word	0x0002c355
   13f8c:	0002c355 	.word	0x0002c355
   13f90:	0002c223 	.word	0x0002c223
   13f94:	0002c1e5 	.word	0x0002c1e5
   13f98:	00044fb4 	.word	0x00044fb4
   13f9c:	0002c185 	.word	0x0002c185
   13fa0:	0002c136 	.word	0x0002c136
   13fa4:	0002c12d 	.word	0x0002c12d
   13fa8:	00044ef0 	.word	0x00044ef0
   13fac:	0002c0d8 	.word	0x0002c0d8
   13fb0:	00044e84 	.word	0x00044e84
   13fb4:	0002c0bb 	.word	0x0002c0bb
   13fb8:	0002c06b 	.word	0x0002c06b
   13fbc:	0002c065 	.word	0x0002c065
   13fc0:	00044de8 	.word	0x00044de8
   13fc4:	0002c053 	.word	0x0002c053
   13fc8:	00044dbc 	.word	0x00044dbc
   13fcc:	0002c043 	.word	0x0002c043
   13fd0:	0002bfec 	.word	0x0002bfec
   13fd4:	00044d24 	.word	0x00044d24
   13fd8:	0002bfca 	.word	0x0002bfca
   13fdc:	0000023c 	.word	0x0000023c
   13fe0:	0002bf02 	.word	0x0002bf02
   13fe4:	0002bfb9 	.word	0x0002bfb9
   13fe8:	00044cd0 	.word	0x00044cd0
   13fec:	0002bf7e 	.word	0x0002bf7e
   13ff0:	00044cb0 	.word	0x00044cb0
   13ff4:	0002bf8f 	.word	0x0002bf8f
   13ff8:	0002bf9a 	.word	0x0002bf9a

00013ffc <ble_startup_indication>:
#ifdef CONFIG_LINUX_BLE_STACK_APP

int ble_startup_indication(unsigned char* data)
{
	
}
   13ffc:	e12fff1e 	bx	lr

00014000 <atbm_ioctl_ble_smt_event_async>:
void atbm_ioctl_ble_smt_event_async(uint8_t* event_buffer, uint16_t event_len)
{
   14000:	e12fff1e 	bx	lr

00014004 <ble_smart_cfg_indication>:
	
}
#endif  //ifeq ($(CONFIG_LINUX_BLE_STACK_APP), y)
extern bool g_is_quit;
void ble_smart_cfg_indication(uint8_t status, ble_smart_cfg* smart_info)
{
   14004:	e92d4070 	push	{r4, r5, r6, lr}
   14008:	e24dd068 	sub	sp, sp, #104	; 0x68
   1400c:	e1a05001 	mov	r5, r1
   14010:	e1a06000 	mov	r6, r0
	struct wsm_ble_smt_ind smt_ind = { 0 };
   14014:	e3a02068 	mov	r2, #104	; 0x68
   14018:	e3a01000 	mov	r1, #0
   1401c:	e1a0000d 	mov	r0, sp
   14020:	ebfff880 	bl	12228 <memset@plt>
	smt_ind.status = status;
	//if(status == BLE_SMART_CFG_STATUS_SUCESS)
	{
		smt_ind.ssid_len = smart_info->ssid_len;
   14024:	e5d52060 	ldrb	r2, [r5, #96]	; 0x60
		memcpy(smt_ind.ssid, smart_info->ssid, smart_info->ssid_len);
   14028:	e1a01005 	mov	r1, r5
   1402c:	e28d0004 	add	r0, sp, #4
		smt_ind.ssid_len = smart_info->ssid_len;
   14030:	e5cd2064 	strb	r2, [sp, #100]	; 0x64
	smt_ind.status = status;
   14034:	e58d6000 	str	r6, [sp]
		memcpy(smt_ind.ssid, smart_info->ssid, smart_info->ssid_len);
   14038:	ebfff7f0 	bl	12000 <memcpy@plt>
		smt_ind.pwd_len = smart_info->pwd_len;
   1403c:	e5d52061 	ldrb	r2, [r5, #97]	; 0x61
		memcpy(smt_ind.pwd, smart_info->pwd, smart_info->pwd_len);
   14040:	e2851020 	add	r1, r5, #32
   14044:	e28d0024 	add	r0, sp, #36	; 0x24
		smt_ind.pwd_len = smart_info->pwd_len;
   14048:	e5cd2065 	strb	r2, [sp, #101]	; 0x65
		memcpy(smt_ind.pwd, smart_info->pwd, smart_info->pwd_len);
   1404c:	ebfff7eb 	bl	12000 <memcpy@plt>
	}
	smt_demo_end_indicate((u8*)&smt_ind);
   14050:	e1a0000d 	mov	r0, sp
   14054:	eb00020b 	bl	14888 <smt_demo_end_indicate>
}
   14058:	e28dd068 	add	sp, sp, #104	; 0x68
   1405c:	e8bd8070 	pop	{r4, r5, r6, pc}

00014060 <ble_smart_cfg_task>:

static int ble_smart_cfg_task(void* param)
{
   14060:	e92d47f0 	push	{r4, r5, r6, r7, r8, r9, sl, lr}
   14064:	e59f42a8 	ldr	r4, [pc, #680]	; 14314 <ble_smart_cfg_task+0x2b4>
	int rc;
	int wifi_connected_status = 0;
	uint8_t atbm_ble_addr[6];
	smart_cfg_start = 1;
   14068:	e59f32a8 	ldr	r3, [pc, #680]	; 14318 <ble_smart_cfg_task+0x2b8>
{
   1406c:	e08f4004 	add	r4, pc, r4
	smart_cfg_start = 1;
   14070:	e7946003 	ldr	r6, [r4, r3]
   14074:	e3a03001 	mov	r3, #1
   14078:	e5863000 	str	r3, [r6]
	g_is_quit=0;
   1407c:	e59f3298 	ldr	r3, [pc, #664]	; 1431c <ble_smart_cfg_task+0x2bc>
	atbm_ble_is_quit=0;
	ble_npl_time_t wifi_connected_start = 0;
	ble_npl_time_t wifi_connected_cur = 0;

	ble_npl_sem_init(&hci_smt_sem, 0);
   14080:	e59f9298 	ldr	r9, [pc, #664]	; 14320 <ble_smart_cfg_task+0x2c0>
	g_is_quit=0;
   14084:	e7947003 	ldr	r7, [r4, r3]
	atbm_ble_is_quit=0;
   14088:	e59f3294 	ldr	r3, [pc, #660]	; 14324 <ble_smart_cfg_task+0x2c4>
	g_is_quit=0;
   1408c:	e3a05000 	mov	r5, #0
   14090:	e5c75000 	strb	r5, [r7]
	atbm_ble_is_quit=0;
   14094:	e7948003 	ldr	r8, [r4, r3]
	ble_npl_sem_init(&hci_smt_sem, 0);
   14098:	e08f9009 	add	r9, pc, r9
{
   1409c:	e24dd020 	sub	sp, sp, #32
	ble_npl_sem_init(&hci_smt_sem, 0);
   140a0:	e1a01005 	mov	r1, r5
   140a4:	e2890004 	add	r0, r9, #4
	atbm_ble_is_quit=0;
   140a8:	e5c85000 	strb	r5, [r8]
	ble_npl_sem_init(&hci_smt_sem, 0);
   140ac:	ebfffaa7 	bl	12b50 <ble_npl_sem_init>

	//	rc = ble_hs_id_infer_auto(0, &blesmt_addr_type);
	//	assert(rc == 0);
	blesmt_addr_type = BLE_OWN_ADDR_PUBLIC;
	ble_gap_set_default_tx_power(0);
   140b0:	e1a00005 	mov	r0, r5
	blesmt_addr_type = BLE_OWN_ADDR_PUBLIC;
   140b4:	e5c95000 	strb	r5, [r9]
	ble_gap_set_default_tx_power(0);
   140b8:	eb001768 	bl	19e60 <ble_gap_set_default_tx_power>
	/* Begin advertising */
	blesmt_advertise();
   140bc:	ebfffb39 	bl	12da8 <blesmt_advertise>
	get_ble_addr(atbm_ble_addr);
   140c0:	e28d0018 	add	r0, sp, #24
   140c4:	ebfffe73 	bl	13a98 <get_ble_addr>
	iot_printf("pub addr %02hhx:%02hx:%2hx:%2hhx:%02hhx:%02hhx\n",atbm_ble_addr[5],atbm_ble_addr[4],atbm_ble_addr[3],atbm_ble_addr[2],atbm_ble_addr[1],atbm_ble_addr[0]);
   140c8:	e5dd0018 	ldrb	r0, [sp, #24]
   140cc:	e5dd301b 	ldrb	r3, [sp, #27]
   140d0:	e58d0008 	str	r0, [sp, #8]
   140d4:	e5dd0019 	ldrb	r0, [sp, #25]
   140d8:	e5dd201c 	ldrb	r2, [sp, #28]
   140dc:	e58d0004 	str	r0, [sp, #4]
   140e0:	e5dd001a 	ldrb	r0, [sp, #26]
   140e4:	e5dd101d 	ldrb	r1, [sp, #29]
   140e8:	e58d0000 	str	r0, [sp]
   140ec:	e59f0234 	ldr	r0, [pc, #564]	; 14328 <ble_smart_cfg_task+0x2c8>
#if ATBM_BLE_SMART_APP
	while (!atbm_ble_is_quit) {
		//iot_printf(" ble_smart_cfg_task wait... step %d\n", ble_smart_info.step);

		if (ble_smart_info.step != BLE_SMART_CFG_SSID_PWD_TRANS_END) {
			rc = ble_npl_sem_pend(&hci_smt_sem, ble_npl_time_ms_to_ticks32(1000));//BLE_SMART_CFG_TIMEOUT_MS  1000ms
   140f0:	e59f9234 	ldr	r9, [pc, #564]	; 1432c <ble_smart_cfg_task+0x2cc>
	iot_printf("pub addr %02hhx:%02hx:%2hx:%2hhx:%02hhx:%02hhx\n",atbm_ble_addr[5],atbm_ble_addr[4],atbm_ble_addr[3],atbm_ble_addr[2],atbm_ble_addr[1],atbm_ble_addr[0]);
   140f4:	e08f0000 	add	r0, pc, r0
   140f8:	ebfff87a 	bl	122e8 <printf@plt>
			rc = ble_npl_sem_pend(&hci_smt_sem, ble_npl_time_ms_to_ticks32(1000));//BLE_SMART_CFG_TIMEOUT_MS  1000ms
   140fc:	e08f9009 	add	r9, pc, r9
   14100:	e2899004 	add	r9, r9, #4
	while (!atbm_ble_is_quit) {
   14104:	e5d83000 	ldrb	r3, [r8]
   14108:	e3530000 	cmp	r3, #0
   1410c:	e59f321c 	ldr	r3, [pc, #540]	; 14330 <ble_smart_cfg_task+0x2d0>
   14110:	e7945003 	ldr	r5, [r4, r3]
   14114:	1a000047 	bne	14238 <ble_smart_cfg_task+0x1d8>
		if (ble_smart_info.step != BLE_SMART_CFG_SSID_PWD_TRANS_END) {
   14118:	e5d53064 	ldrb	r3, [r5, #100]	; 0x64
   1411c:	e35300fe 	cmp	r3, #254	; 0xfe
   14120:	0a000007 	beq	14144 <ble_smart_cfg_task+0xe4>
			rc = ble_npl_sem_pend(&hci_smt_sem, ble_npl_time_ms_to_ticks32(1000));//BLE_SMART_CFG_TIMEOUT_MS  1000ms
   14124:	e3a00ffa 	mov	r0, #1000	; 0x3e8
   14128:	ebfff944 	bl	12640 <ble_npl_time_ms_to_ticks32>
   1412c:	e1a01000 	mov	r1, r0
   14130:	e1a00009 	mov	r0, r9
   14134:	ebfffaad 	bl	12bf0 <ble_npl_sem_pend>
			//rc = ble_npl_sem_pend(&hci_smt_sem, ble_npl_time_ms_to_ticks32(1000));
			sleep(1);
			rc = 0;
		}
		
		if (rc == 0) {
   14138:	e3500000 	cmp	r0, #0
   1413c:	1afffff0 	bne	14104 <ble_smart_cfg_task+0xa4>
   14140:	ea000001 	b	1414c <ble_smart_cfg_task+0xec>
			sleep(1);
   14144:	e3a00001 	mov	r0, #1
   14148:	ebfff7af 	bl	1200c <sleep@plt>
			if (ble_smart_info.step == 4) {
   1414c:	e5d51064 	ldrb	r1, [r5, #100]	; 0x64
   14150:	e3510004 	cmp	r1, #4
   14154:	1a00000c 	bne	1418c <ble_smart_cfg_task+0x12c>
				iot_printf("ble smart cfg connect ap! ssid:%s pwd:%s \n", ble_smart_info.ssid, ble_smart_info.pwd);
   14158:	e59f01d4 	ldr	r0, [pc, #468]	; 14334 <ble_smart_cfg_task+0x2d4>
   1415c:	e2852020 	add	r2, r5, #32
   14160:	e1a01005 	mov	r1, r5
   14164:	e08f0000 	add	r0, pc, r0
   14168:	ebfff85e 	bl	122e8 <printf@plt>
				wifi_connected_start = ble_npl_time_get();
   1416c:	ebfff910 	bl	125b4 <ble_npl_time_get>
				wifi_connected_start = ble_npl_time_ticks_to_ms32(wifi_connected_start);
   14170:	ebfff933 	bl	12644 <ble_npl_time_ticks_to_ms32>
				ble_smart_cfg_indication(BLE_SMART_CFG_SSID_PWD_TRANS_END, &ble_smart_info);
   14174:	e1a01005 	mov	r1, r5
   14178:	e3a000fe 	mov	r0, #254	; 0xfe
   1417c:	ebffffa0 	bl	14004 <ble_smart_cfg_indication>
				ble_smart_info.step = BLE_SMART_CFG_SSID_PWD_TRANS_END;
   14180:	e3e03001 	mvn	r3, #1
   14184:	e5c53064 	strb	r3, [r5, #100]	; 0x64
   14188:	eaffffdd 	b	14104 <ble_smart_cfg_task+0xa4>
				//break;
			}
			else if (ble_smart_info.step == BLE_SMART_CFG_SSID_PWD_TRANS_END) {
   1418c:	e35100fe 	cmp	r1, #254	; 0xfe
   14190:	1a000014 	bne	141e8 <ble_smart_cfg_task+0x188>

				//check wifi connect status				 
				//	ble_smart_cfg_indication(BLE_SMART_CFG_STATUS_END, &ble_smart_info);
				wifi_connected_status = get_wifi_wpa_status();
   14194:	eb0001a9 	bl	14840 <get_wifi_wpa_status>
   14198:	e1a0a000 	mov	sl, r0
				iot_printf("BLE_SMART_CFG_SSID_PWD_TRANS_END!wifi_connected_status:%d \n", wifi_connected_status);
   1419c:	e1a01000 	mov	r1, r0
   141a0:	e59f0190 	ldr	r0, [pc, #400]	; 14338 <ble_smart_cfg_task+0x2d8>
   141a4:	e08f0000 	add	r0, pc, r0
   141a8:	ebfff84e 	bl	122e8 <printf@plt>
				if (wifi_connected_status == 1) {
   141ac:	e35a0001 	cmp	sl, #1
   141b0:	1affffd3 	bne	14104 <ble_smart_cfg_task+0xa4>
					ble_smart_info.step = BLE_SMART_CFG_STATUS_END;
   141b4:	e3e03000 	mvn	r3, #0
   141b8:	e5c53064 	strb	r3, [r5, #100]	; 0x64
					gatt_svr_chr_notify(ble_conn_handle, blesmt_notify_handle, wifi_conn_ok, strlen(wifi_conn_ok));
   141bc:	e59f3178 	ldr	r3, [pc, #376]	; 1433c <ble_smart_cfg_task+0x2dc>
   141c0:	e59f2178 	ldr	r2, [pc, #376]	; 14340 <ble_smart_cfg_task+0x2e0>
   141c4:	e7941003 	ldr	r1, [r4, r3]
   141c8:	e59f3174 	ldr	r3, [pc, #372]	; 14344 <ble_smart_cfg_task+0x2e4>
   141cc:	e08f2002 	add	r2, pc, r2
   141d0:	e7940003 	ldr	r0, [r4, r3]
   141d4:	e1d110b0 	ldrh	r1, [r1]
   141d8:	e3a03002 	mov	r3, #2
   141dc:	e1d000b0 	ldrh	r0, [r0]
   141e0:	ebfffe38 	bl	13ac8 <gatt_svr_chr_notify>
					break;
   141e4:	ea000013 	b	14238 <ble_smart_cfg_task+0x1d8>
				}

				//break;
			}
			else if (ble_smart_info.step == BLE_SMART_CFG_STATUS_END) {
   141e8:	e35100ff 	cmp	r1, #255	; 0xff
   141ec:	1a000003 	bne	14200 <ble_smart_cfg_task+0x1a0>
				iot_printf("### ble smart cfg sucess!\n");
   141f0:	e59f0150 	ldr	r0, [pc, #336]	; 14348 <ble_smart_cfg_task+0x2e8>
   141f4:	e08f0000 	add	r0, pc, r0
   141f8:	ebfff843 	bl	1230c <puts@plt>
				break;
   141fc:	ea00000d 	b	14238 <ble_smart_cfg_task+0x1d8>
			}
			else {
				assert(ble_smart_info.step >= BLE_SMART_CFG_STATUS_BUSY);
   14200:	e35100ef 	cmp	r1, #239	; 0xef
   14204:	8a000008 	bhi	1422c <ble_smart_cfg_task+0x1cc>
   14208:	e59f313c 	ldr	r3, [pc, #316]	; 1434c <ble_smart_cfg_task+0x2ec>
   1420c:	e59f113c 	ldr	r1, [pc, #316]	; 14350 <ble_smart_cfg_task+0x2f0>
   14210:	e59f013c 	ldr	r0, [pc, #316]	; 14354 <ble_smart_cfg_task+0x2f4>
   14214:	e08f3003 	add	r3, pc, r3
   14218:	e283302a 	add	r3, r3, #42	; 0x2a
   1421c:	e59f2134 	ldr	r2, [pc, #308]	; 14358 <ble_smart_cfg_task+0x2f8>
   14220:	e08f1001 	add	r1, pc, r1
   14224:	e08f0000 	add	r0, pc, r0
   14228:	ebfff7b0 	bl	120f0 <__assert@plt>
				iot_printf("ble smart cfg err(0x%X)!\n", ble_smart_info.step);
   1422c:	e59f0128 	ldr	r0, [pc, #296]	; 1435c <ble_smart_cfg_task+0x2fc>
   14230:	e08f0000 	add	r0, pc, r0
   14234:	ebfff82b 	bl	122e8 <printf@plt>
	while (!atbm_ble_is_quit) 
	{
		sleep(1);
	}
#endif
	if(atbm_ble_status==ATBM_BLE_STATUS_ADVERTISE)
   14238:	e59f3120 	ldr	r3, [pc, #288]	; 14360 <ble_smart_cfg_task+0x300>
   1423c:	e7943003 	ldr	r3, [r4, r3]
   14240:	e5d32000 	ldrb	r2, [r3]
   14244:	e1a08003 	mov	r8, r3
   14248:	e3520001 	cmp	r2, #1
   1424c:	1a000003 	bne	14260 <ble_smart_cfg_task+0x200>
	{
		ble_gap_adv_stop();
   14250:	eb001a3e 	bl	1ab50 <ble_gap_adv_stop>
		iot_printf("<====== ble_gap_adv_stop\n");
   14254:	e59f0108 	ldr	r0, [pc, #264]	; 14364 <ble_smart_cfg_task+0x304>
   14258:	e08f0000 	add	r0, pc, r0
   1425c:	ebfff82a 	bl	1230c <puts@plt>
	}
	if(atbm_ble_status==ATBM_BLE_STATUS_CONNECT)
   14260:	e5d88000 	ldrb	r8, [r8]
   14264:	e3580002 	cmp	r8, #2
   14268:	1a000009 	bne	14294 <ble_smart_cfg_task+0x234>
	{
		ble_gap_terminate(ble_conn_handle,BLE_ERR_REM_USER_CONN_TERM);
   1426c:	e59f30d0 	ldr	r3, [pc, #208]	; 14344 <ble_smart_cfg_task+0x2e4>
   14270:	e3a01013 	mov	r1, #19
   14274:	e7943003 	ldr	r3, [r4, r3]
   14278:	e1d300b0 	ldrh	r0, [r3]
   1427c:	eb001be2 	bl	1b20c <ble_gap_terminate>
		sleep(2);
   14280:	e1a00008 	mov	r0, r8
   14284:	ebfff760 	bl	1200c <sleep@plt>
		iot_printf("<====== ble_gap_terminate(ble_conn_handle,19);\n");
   14288:	e59f00d8 	ldr	r0, [pc, #216]	; 14368 <ble_smart_cfg_task+0x308>
   1428c:	e08f0000 	add	r0, pc, r0
   14290:	ebfff81d 	bl	1230c <puts@plt>
	}
	smart_cfg_start = 0;
	ble_npl_sem_free(&hci_smt_sem);
   14294:	e59f00d0 	ldr	r0, [pc, #208]	; 1436c <ble_smart_cfg_task+0x30c>
	smart_cfg_start = 0;
   14298:	e3a08000 	mov	r8, #0
	ble_npl_sem_free(&hci_smt_sem);
   1429c:	e08f0000 	add	r0, pc, r0
   142a0:	e2800004 	add	r0, r0, #4
	smart_cfg_start = 0;
   142a4:	e5868000 	str	r8, [r6]
	ble_npl_sem_free(&hci_smt_sem);
   142a8:	ebfffa40 	bl	12bb0 <ble_npl_sem_free>
	atbm_ThreadStopEvent(ble_smt_thread);
   142ac:	e59f30bc 	ldr	r3, [pc, #188]	; 14370 <ble_smart_cfg_task+0x310>
   142b0:	e7943003 	ldr	r3, [r4, r3]
   142b4:	e5930000 	ldr	r0, [r3]
   142b8:	ebfffa1e 	bl	12b38 <atbm_ThreadStopEvent>
	iot_printf("<====== ble_smart_cfg_task end step %d\n", ble_smart_info.step);
   142bc:	e59f00b0 	ldr	r0, [pc, #176]	; 14374 <ble_smart_cfg_task+0x314>
   142c0:	e5d51064 	ldrb	r1, [r5, #100]	; 0x64
   142c4:	e08f0000 	add	r0, pc, r0
   142c8:	ebfff806 	bl	122e8 <printf@plt>
	sem_post(&sem_sock_sync);
   142cc:	e59f30a4 	ldr	r3, [pc, #164]	; 14378 <ble_smart_cfg_task+0x318>
   142d0:	e7943003 	ldr	r3, [r4, r3]
   142d4:	e1a00003 	mov	r0, r3
   142d8:	e58d3014 	str	r3, [sp, #20]
   142dc:	ebfff7ef 	bl	122a0 <sem_post@plt>
	strcpy(cmd_line,"quit");
   142e0:	e59f3094 	ldr	r3, [pc, #148]	; 1437c <ble_smart_cfg_task+0x31c>
   142e4:	e59f1094 	ldr	r1, [pc, #148]	; 14380 <ble_smart_cfg_task+0x320>
   142e8:	e7943003 	ldr	r3, [r4, r3]
   142ec:	e08f1001 	add	r1, pc, r1
   142f0:	e1a00003 	mov	r0, r3
   142f4:	e58d3014 	str	r3, [sp, #20]
   142f8:	ebfff812 	bl	12348 <strcpy@plt>
	g_is_quit=1;
   142fc:	e3a03001 	mov	r3, #1
	smart_cfg_start = 0;

	return 0;
}
   14300:	e1a00008 	mov	r0, r8
	g_is_quit=1;
   14304:	e5c73000 	strb	r3, [r7]
	smart_cfg_start = 0;
   14308:	e5868000 	str	r8, [r6]
}
   1430c:	e28dd020 	add	sp, sp, #32
   14310:	e8bd87f0 	pop	{r4, r5, r6, r7, r8, r9, sl, pc}
   14314:	00043f8c 	.word	0x00043f8c
   14318:	000001d0 	.word	0x000001d0
   1431c:	000001fc 	.word	0x000001fc
   14320:	00044b44 	.word	0x00044b44
   14324:	000001e4 	.word	0x000001e4
   14328:	0002be1a 	.word	0x0002be1a
   1432c:	00044ae0 	.word	0x00044ae0
   14330:	00000278 	.word	0x00000278
   14334:	0002bdda 	.word	0x0002bdda
   14338:	0002bdc5 	.word	0x0002bdc5
   1433c:	0000023c 	.word	0x0000023c
   14340:	0002bc1e 	.word	0x0002bc1e
   14344:	000001a4 	.word	0x000001a4
   14348:	0002bdb1 	.word	0x0002bdb1
   1434c:	0002b41b 	.word	0x0002b41b
   14350:	0002b52c 	.word	0x0002b52c
   14354:	0002bd9b 	.word	0x0002bd9b
   14358:	0000040c 	.word	0x0000040c
   1435c:	0002bdab 	.word	0x0002bdab
   14360:	00000178 	.word	0x00000178
   14364:	0002bd9d 	.word	0x0002bd9d
   14368:	0002bd82 	.word	0x0002bd82
   1436c:	00044940 	.word	0x00044940
   14370:	00000254 	.word	0x00000254
   14374:	0002bd79 	.word	0x0002bd79
   14378:	00000264 	.word	0x00000264
   1437c:	00000220 	.word	0x00000220
   14380:	0002bd79 	.word	0x0002bd79

00014384 <ble_smart_gatt_svcs_init>:




void ble_smart_gatt_svcs_init(void)
{
   14384:	e92d4010 	push	{r4, lr}
	int rc;

    ble_svc_gap_init();
   14388:	eb000536 	bl	15868 <ble_svc_gap_init>
    ble_svc_gatt_init();
   1438c:	eb000598 	bl	159f4 <ble_svc_gatt_init>

    rc = ble_gatts_count_cfg(gatt_svr_svcs);
   14390:	e59f4058 	ldr	r4, [pc, #88]	; 143f0 <ble_smart_gatt_svcs_init+0x6c>
   14394:	e08f4004 	add	r4, pc, r4
   14398:	e1a00004 	mov	r0, r4
   1439c:	eb003123 	bl	20830 <ble_gatts_count_cfg>
    if (rc != 0) {
   143a0:	e3500000 	cmp	r0, #0
   143a4:	18bd8010 	popne	{r4, pc}
        return;
    }

    rc = ble_gatts_add_svcs(gatt_svr_svcs);
   143a8:	e1a00004 	mov	r0, r4
   143ac:	eb0030ea 	bl	2075c <ble_gatts_add_svcs>
    if (rc != 0) {
   143b0:	e3500000 	cmp	r0, #0
   143b4:	18bd8010 	popne	{r4, pc}
        return;
    }

    rc = ble_svc_gap_device_name_set(device_name);
   143b8:	e59f0034 	ldr	r0, [pc, #52]	; 143f4 <ble_smart_gatt_svcs_init+0x70>
   143bc:	e08f0000 	add	r0, pc, r0
   143c0:	eb000509 	bl	157ec <ble_svc_gap_device_name_set>
    assert(rc == 0);
   143c4:	e3500000 	cmp	r0, #0
   143c8:	08bd8010 	popeq	{r4, pc}
   143cc:	e59f3024 	ldr	r3, [pc, #36]	; 143f8 <ble_smart_gatt_svcs_init+0x74>
   143d0:	e59f1024 	ldr	r1, [pc, #36]	; 143fc <ble_smart_gatt_svcs_init+0x78>
   143d4:	e59f0024 	ldr	r0, [pc, #36]	; 14400 <ble_smart_gatt_svcs_init+0x7c>
   143d8:	e08f3003 	add	r3, pc, r3
   143dc:	e283303d 	add	r3, r3, #61	; 0x3d
   143e0:	e59f201c 	ldr	r2, [pc, #28]	; 14404 <ble_smart_gatt_svcs_init+0x80>
   143e4:	e08f1001 	add	r1, pc, r1
   143e8:	e08f0000 	add	r0, pc, r0
   143ec:	ebfff73f 	bl	120f0 <__assert@plt>
   143f0:	00042490 	.word	0x00042490
   143f4:	0002b2f0 	.word	0x0002b2f0
   143f8:	0002b257 	.word	0x0002b257
   143fc:	0002b368 	.word	0x0002b368
   14400:	0002b752 	.word	0x0002b752
   14404:	00000458 	.word	0x00000458

00014408 <ble_smart_cfg_startup>:

}

void ble_smart_cfg_startup(void)
{
   14408:	e92d4037 	push	{r0, r1, r2, r4, r5, lr}
   1440c:	e59f4078 	ldr	r4, [pc, #120]	; 1448c <ble_smart_cfg_startup+0x84>
	if(smart_cfg_start){
   14410:	e59f3078 	ldr	r3, [pc, #120]	; 14490 <ble_smart_cfg_startup+0x88>
{
   14414:	e08f4004 	add	r4, pc, r4
	if(smart_cfg_start){
   14418:	e7943003 	ldr	r3, [r4, r3]
   1441c:	e5935000 	ldr	r5, [r3]
   14420:	e3550000 	cmp	r5, #0
   14424:	0a000004 	beq	1443c <ble_smart_cfg_startup+0x34>
		iot_printf("ble smart cfg busy!\n");
   14428:	e59f0064 	ldr	r0, [pc, #100]	; 14494 <ble_smart_cfg_startup+0x8c>
   1442c:	e08f0000 	add	r0, pc, r0
		return;
	}
	iot_printf("ble_smart_cfg_startup!11\n");
	memset(&ble_smart_info, 0, sizeof(struct ble_smart_cfg_t));
	ble_smt_thread = atbm_createThread(ble_smart_cfg_task, (atbm_void*)ATBM_NULL, BLE_APP_PRIO);
}
   14430:	e28dd00c 	add	sp, sp, #12
   14434:	e8bd4030 	pop	{r4, r5, lr}
		iot_printf("ble smart cfg busy!\n");
   14438:	eafff7b3 	b	1230c <puts@plt>
	iot_printf("ble_smart_cfg_startup!11\n");
   1443c:	e59f0054 	ldr	r0, [pc, #84]	; 14498 <ble_smart_cfg_startup+0x90>
   14440:	e08f0000 	add	r0, pc, r0
   14444:	ebfff7b0 	bl	1230c <puts@plt>
	memset(&ble_smart_info, 0, sizeof(struct ble_smart_cfg_t));
   14448:	e59f304c 	ldr	r3, [pc, #76]	; 1449c <ble_smart_cfg_startup+0x94>
   1444c:	e1a01005 	mov	r1, r5
   14450:	e7943003 	ldr	r3, [r4, r3]
   14454:	e3a02065 	mov	r2, #101	; 0x65
   14458:	e1a00003 	mov	r0, r3
   1445c:	e58d3004 	str	r3, [sp, #4]
   14460:	ebfff770 	bl	12228 <memset@plt>
	ble_smt_thread = atbm_createThread(ble_smart_cfg_task, (atbm_void*)ATBM_NULL, BLE_APP_PRIO);
   14464:	e59f0034 	ldr	r0, [pc, #52]	; 144a0 <ble_smart_cfg_startup+0x98>
   14468:	e3a02005 	mov	r2, #5
   1446c:	e1a01005 	mov	r1, r5
   14470:	e08f0000 	add	r0, pc, r0
   14474:	ebfff98e 	bl	12ab4 <atbm_createThread>
   14478:	e59f3024 	ldr	r3, [pc, #36]	; 144a4 <ble_smart_cfg_startup+0x9c>
   1447c:	e7943003 	ldr	r3, [r4, r3]
   14480:	e5830000 	str	r0, [r3]
}
   14484:	e28dd00c 	add	sp, sp, #12
   14488:	e8bd8030 	pop	{r4, r5, pc}
   1448c:	00043be4 	.word	0x00043be4
   14490:	000001d0 	.word	0x000001d0
   14494:	0002bc3e 	.word	0x0002bc3e
   14498:	0002bc3e 	.word	0x0002bc3e
   1449c:	00000278 	.word	0x00000278
   144a0:	fffffbe8 	.word	0xfffffbe8
   144a4:	00000254 	.word	0x00000254

000144a8 <ble_smart_cfg_stop>:

void ble_smart_cfg_stop(void)
{
   144a8:	e59f3040 	ldr	r3, [pc, #64]	; 144f0 <ble_smart_cfg_stop+0x48>
	if(smart_cfg_start == 0){
   144ac:	e59f2040 	ldr	r2, [pc, #64]	; 144f4 <ble_smart_cfg_stop+0x4c>
{
   144b0:	e08f3003 	add	r3, pc, r3
	if(smart_cfg_start == 0){
   144b4:	e7932002 	ldr	r2, [r3, r2]
   144b8:	e5922000 	ldr	r2, [r2]
   144bc:	e3520000 	cmp	r2, #0
   144c0:	1a000002 	bne	144d0 <ble_smart_cfg_stop+0x28>
		iot_printf("ble smart cfg not start!\n");
   144c4:	e59f002c 	ldr	r0, [pc, #44]	; 144f8 <ble_smart_cfg_stop+0x50>
   144c8:	e08f0000 	add	r0, pc, r0
   144cc:	eafff78e 	b	1230c <puts@plt>
		return;
	}
	ble_smart_info.step = BLE_SMART_CFG_STATUS_STOP;
   144d0:	e59f2024 	ldr	r2, [pc, #36]	; 144fc <ble_smart_cfg_stop+0x54>
	ble_npl_sem_release(&hci_smt_sem);
   144d4:	e59f0024 	ldr	r0, [pc, #36]	; 14500 <ble_smart_cfg_stop+0x58>
	ble_smart_info.step = BLE_SMART_CFG_STATUS_STOP;
   144d8:	e7933002 	ldr	r3, [r3, r2]
	ble_npl_sem_release(&hci_smt_sem);
   144dc:	e08f0000 	add	r0, pc, r0
	ble_smart_info.step = BLE_SMART_CFG_STATUS_STOP;
   144e0:	e3e02009 	mvn	r2, #9
	ble_npl_sem_release(&hci_smt_sem);
   144e4:	e2800004 	add	r0, r0, #4
	ble_smart_info.step = BLE_SMART_CFG_STATUS_STOP;
   144e8:	e5c32064 	strb	r2, [r3, #100]	; 0x64
	ble_npl_sem_release(&hci_smt_sem);
   144ec:	eafff9b5 	b	12bc8 <ble_npl_sem_release>
   144f0:	00043b48 	.word	0x00043b48
   144f4:	000001d0 	.word	0x000001d0
   144f8:	0002bbcf 	.word	0x0002bbcf
   144fc:	00000278 	.word	0x00000278
   14500:	00044700 	.word	0x00044700

00014504 <ble_smart_cfg_test_ok>:
}

void ble_smart_cfg_test_ok(u8 *ssid, u8 *pwd)
{
   14504:	e92d4070 	push	{r4, r5, r6, lr}
   14508:	e59f4084 	ldr	r4, [pc, #132]	; 14594 <ble_smart_cfg_test_ok+0x90>
	if(smart_cfg_start == 0){
   1450c:	e59f3084 	ldr	r3, [pc, #132]	; 14598 <ble_smart_cfg_test_ok+0x94>
{
   14510:	e08f4004 	add	r4, pc, r4
	if(smart_cfg_start == 0){
   14514:	e7943003 	ldr	r3, [r4, r3]
   14518:	e5933000 	ldr	r3, [r3]
   1451c:	e3530000 	cmp	r3, #0
   14520:	08bd8070 	popeq	{r4, r5, r6, pc}
		return;
	}
	iot_printf("smt test ok, ssid:%s, pwd:%s\n", ssid, pwd);
   14524:	e1a02001 	mov	r2, r1
   14528:	e1a05001 	mov	r5, r1
   1452c:	e1a06000 	mov	r6, r0
   14530:	e1a01000 	mov	r1, r0
   14534:	e59f0060 	ldr	r0, [pc, #96]	; 1459c <ble_smart_cfg_test_ok+0x98>
   14538:	e08f0000 	add	r0, pc, r0
   1453c:	ebfff769 	bl	122e8 <printf@plt>
	strcpy(ble_smart_info.ssid, ssid);
   14540:	e59f3058 	ldr	r3, [pc, #88]	; 145a0 <ble_smart_cfg_test_ok+0x9c>
   14544:	e1a01006 	mov	r1, r6
   14548:	e7944003 	ldr	r4, [r4, r3]
   1454c:	e1a00004 	mov	r0, r4
   14550:	ebfff77c 	bl	12348 <strcpy@plt>
	ble_smart_info.ssid_len = strlen(ssid);
   14554:	e1a00006 	mov	r0, r6
   14558:	ebfff6cc 	bl	12090 <strlen@plt>
	strcpy(ble_smart_info.pwd, pwd);
   1455c:	e1a01005 	mov	r1, r5
	ble_smart_info.ssid_len = strlen(ssid);
   14560:	e5c40060 	strb	r0, [r4, #96]	; 0x60
	strcpy(ble_smart_info.pwd, pwd);
   14564:	e2840020 	add	r0, r4, #32
   14568:	ebfff776 	bl	12348 <strcpy@plt>
	ble_smart_info.pwd_len = strlen(pwd);	
   1456c:	e1a00005 	mov	r0, r5
   14570:	ebfff6c6 	bl	12090 <strlen@plt>
	ble_smart_info.step = BLE_SMART_CFG_STATUS_END;
   14574:	e3e03000 	mvn	r3, #0
   14578:	e5c43064 	strb	r3, [r4, #100]	; 0x64
	ble_smart_info.pwd_len = strlen(pwd);	
   1457c:	e5c40061 	strb	r0, [r4, #97]	; 0x61
	ble_npl_sem_release(&hci_smt_sem);	
   14580:	e59f001c 	ldr	r0, [pc, #28]	; 145a4 <ble_smart_cfg_test_ok+0xa0>
}
   14584:	e8bd4070 	pop	{r4, r5, r6, lr}
	ble_npl_sem_release(&hci_smt_sem);	
   14588:	e08f0000 	add	r0, pc, r0
   1458c:	e2800004 	add	r0, r0, #4
   14590:	eafff98c 	b	12bc8 <ble_npl_sem_release>
   14594:	00043ae8 	.word	0x00043ae8
   14598:	000001d0 	.word	0x000001d0
   1459c:	0002bb78 	.word	0x0002bb78
   145a0:	00000278 	.word	0x00000278
   145a4:	00044654 	.word	0x00044654

000145a8 <cmd_system>:
	sret = system(gCmdStr);
}
#endif

char* cmd_system(const char* command,char * buf,int buff_len)
{
   145a8:	e92d41f0 	push	{r4, r5, r6, r7, r8, lr}
   145ac:	e1a05001 	mov	r5, r1
    char* result = NULL;
    FILE *fpRead;
    fpRead = popen(command, "r");
   145b0:	e59f106c 	ldr	r1, [pc, #108]	; 14624 <cmd_system+0x7c>
{
   145b4:	e1a06002 	mov	r6, r2
    fpRead = popen(command, "r");
   145b8:	e08f1001 	add	r1, pc, r1
   145bc:	ebfff74f 	bl	12300 <popen@plt>
	if(buf && (buff_len > 1)){
   145c0:	e3550000 	cmp	r5, #0
   145c4:	13560001 	cmpne	r6, #1
   145c8:	c3a04001 	movgt	r4, #1
   145cc:	d3a04000 	movle	r4, #0
    fpRead = popen(command, "r");
   145d0:	e1a07000 	mov	r7, r0
	if(buf && (buff_len > 1)){
   145d4:	da00000c 	ble	1460c <cmd_system+0x64>
  //  char buf[1024];
	    memset(buf,'\0',sizeof(buf));
   145d8:	e3a02004 	mov	r2, #4
   145dc:	e3a01000 	mov	r1, #0
   145e0:	e1a00005 	mov	r0, r5
   145e4:	ebfff70f 	bl	12228 <memset@plt>
    char* result = NULL;
   145e8:	e3a04000 	mov	r4, #0
	    while(fgets(buf,buff_len-1,fpRead)!=NULL)
   145ec:	e2466001 	sub	r6, r6, #1
   145f0:	e1a02007 	mov	r2, r7
   145f4:	e1a01006 	mov	r1, r6
   145f8:	e1a00005 	mov	r0, r5
   145fc:	ebfff6eb 	bl	121b0 <fgets@plt>
   14600:	e3500000 	cmp	r0, #0
   14604:	11a04005 	movne	r4, r5
   14608:	1afffff8 	bne	145f0 <cmd_system+0x48>
	    { 
			result=buf;
	    }
	}
    if(fpRead != NULL)
   1460c:	e3570000 	cmp	r7, #0
   14610:	0a000001 	beq	1461c <cmd_system+0x74>
        pclose(fpRead);
   14614:	e1a00007 	mov	r0, r7
   14618:	ebfff6c3 	bl	1212c <pclose@plt>

    return result;

}
   1461c:	e1a00004 	mov	r0, r4
   14620:	e8bd81f0 	pop	{r4, r5, r6, r7, r8, pc}
   14624:	00030e76 	.word	0x00030e76

00014628 <smt_check_wpa_status>:

	fclose(status_file);
#else
	int wpa_success = 0;
	char buff[32];
	cmd_system("iwpriv wlan0 common get_conn_state > /tmp/wpa_status.txt",NULL,0);
   14628:	e59f0060 	ldr	r0, [pc, #96]	; 14690 <smt_check_wpa_status+0x68>
	int wpa_success = 0;
   1462c:	e3a02000 	mov	r2, #0
{
   14630:	e92d4010 	push	{r4, lr}
	cmd_system("iwpriv wlan0 common get_conn_state > /tmp/wpa_status.txt",NULL,0);
   14634:	e1a01002 	mov	r1, r2
{
   14638:	e24dd028 	sub	sp, sp, #40	; 0x28
	cmd_system("iwpriv wlan0 common get_conn_state > /tmp/wpa_status.txt",NULL,0);
   1463c:	e08f0000 	add	r0, pc, r0
	int wpa_success = 0;
   14640:	e58d2004 	str	r2, [sp, #4]
	cmd_system("iwpriv wlan0 common get_conn_state > /tmp/wpa_status.txt",NULL,0);
   14644:	ebffffd7 	bl	145a8 <cmd_system>
	cmd_system("cat /tmp/wpa_status.txt | grep wifi",buff,32); 
   14648:	e59f0044 	ldr	r0, [pc, #68]	; 14694 <smt_check_wpa_status+0x6c>
   1464c:	e28d4008 	add	r4, sp, #8
   14650:	e1a01004 	mov	r1, r4
   14654:	e3a02020 	mov	r2, #32
   14658:	e08f0000 	add	r0, pc, r0
   1465c:	ebffffd1 	bl	145a8 <cmd_system>
	sscanf(buff,"wifi_status=%d",&wpa_success);
   14660:	e59f1030 	ldr	r1, [pc, #48]	; 14698 <smt_check_wpa_status+0x70>
   14664:	e28d2004 	add	r2, sp, #4
   14668:	e08f1001 	add	r1, pc, r1
   1466c:	e1a00004 	mov	r0, r4
   14670:	ebfff6d4 	bl	121c8 <sscanf@plt>
#endif

	printf("wpa_success %d\n", wpa_success);
   14674:	e59f0020 	ldr	r0, [pc, #32]	; 1469c <smt_check_wpa_status+0x74>
   14678:	e59d1004 	ldr	r1, [sp, #4]
   1467c:	e08f0000 	add	r0, pc, r0
   14680:	ebfff718 	bl	122e8 <printf@plt>
	return wpa_success;

}
   14684:	e59d0004 	ldr	r0, [sp, #4]
   14688:	e28dd028 	add	sp, sp, #40	; 0x28
   1468c:	e8bd8010 	pop	{r4, pc}
   14690:	0002ba92 	.word	0x0002ba92
   14694:	0002baaf 	.word	0x0002baaf
   14698:	0002bac3 	.word	0x0002bac3
   1469c:	0002babe 	.word	0x0002babe

000146a0 <connect_wifi_ap>:

void connect_wifi_ap(u8* ssid, u8 ssidLen, u8* pwd, u8 pwdLen)
{
   146a0:	e92d47f0 	push	{r4, r5, r6, r7, r8, r9, sl, lr}
   146a4:	e59f715c 	ldr	r7, [pc, #348]	; 14808 <connect_wifi_ap+0x168>
   146a8:	e24dd078 	sub	sp, sp, #120	; 0x78
	u8 ssidStr[33] = { 0 };
   146ac:	e28da010 	add	sl, sp, #16
{
   146b0:	e1a08001 	mov	r8, r1
   146b4:	e1a04000 	mov	r4, r0
	u8 ssidStr[33] = { 0 };
   146b8:	e3a01000 	mov	r1, #0
{
   146bc:	e1a06002 	mov	r6, r2
	u8 ssidStr[33] = { 0 };
   146c0:	e1a0000a 	mov	r0, sl
   146c4:	e3a02021 	mov	r2, #33	; 0x21
	u8 pwdStr[65] = { 0 };
   146c8:	e28d9034 	add	r9, sp, #52	; 0x34
{
   146cc:	e1a05003 	mov	r5, r3
	u8 ssidStr[33] = { 0 };
   146d0:	ebfff6d4 	bl	12228 <memset@plt>
	u8 pwdStr[65] = { 0 };
   146d4:	e3a02041 	mov	r2, #65	; 0x41
   146d8:	e3a01000 	mov	r1, #0
   146dc:	e1a00009 	mov	r0, r9
   146e0:	ebfff6d0 	bl	12228 <memset@plt>
	int sret, i;
	int conn_ap_len;
	if (ssidLen > 32 || pwdLen > 64) {
   146e4:	e3550040 	cmp	r5, #64	; 0x40
   146e8:	93580020 	cmpls	r8, #32
{
   146ec:	e08f7007 	add	r7, pc, r7
	if (ssidLen > 32 || pwdLen > 64) {
   146f0:	9a000009 	bls	1471c <connect_wifi_ap+0x7c>
		fprintf(stdout, "ssidLen(%d) pwdLen(%d) error!\n", ssidLen, pwdLen);
   146f4:	e59f3110 	ldr	r3, [pc, #272]	; 1480c <connect_wifi_ap+0x16c>
   146f8:	e59f1110 	ldr	r1, [pc, #272]	; 14810 <connect_wifi_ap+0x170>
   146fc:	e7970003 	ldr	r0, [r7, r3]
   14700:	e1a02008 	mov	r2, r8
   14704:	e5900000 	ldr	r0, [r0]
   14708:	e1a03005 	mov	r3, r5
   1470c:	e08f1001 	add	r1, pc, r1
	sret = system(gCmdStr);

	sprintf(gCmdStr, "wpa_cli -i wlan0 select_network 0");
	sret = system(gCmdStr);
#endif
}
   14710:	e28dd078 	add	sp, sp, #120	; 0x78
   14714:	e8bd47f0 	pop	{r4, r5, r6, r7, r8, r9, sl, lr}
		fprintf(stdout, "ssidLen(%d) pwdLen(%d) error!\n", ssidLen, pwdLen);
   14718:	eafff6c5 	b	12234 <fprintf@plt>
	memcpy(ssidStr, ssid, ssidLen);
   1471c:	e1a02008 	mov	r2, r8
   14720:	e1a01004 	mov	r1, r4
   14724:	e1a0000a 	mov	r0, sl
   14728:	ebfff634 	bl	12000 <memcpy@plt>
	memcpy(pwdStr, pwd, pwdLen);
   1472c:	e1a02005 	mov	r2, r5
   14730:	e1a01006 	mov	r1, r6
   14734:	e1a00009 	mov	r0, r9
   14738:	ebfff630 	bl	12000 <memcpy@plt>
	conn_ap_len = strlen(connect_ap);
   1473c:	e59f30d0 	ldr	r3, [pc, #208]	; 14814 <connect_wifi_ap+0x174>
   14740:	e7973003 	ldr	r3, [r7, r3]
   14744:	e1a00003 	mov	r0, r3
   14748:	e58d300c 	str	r3, [sp, #12]
   1474c:	ebfff64f 	bl	12090 <strlen@plt>
	if(conn_ap_len){
   14750:	e3500000 	cmp	r0, #0
   14754:	0a000011 	beq	147a0 <connect_wifi_ap+0x100>
		if(pwdLen)
   14758:	e3550000 	cmp	r5, #0
   1475c:	0a000008 	beq	14784 <connect_wifi_ap+0xe4>
			sprintf(gCmdStr, "%s %s %s",connect_ap,ssid,pwd);
   14760:	e59f10b0 	ldr	r1, [pc, #176]	; 14818 <connect_wifi_ap+0x178>
   14764:	e59f00b0 	ldr	r0, [pc, #176]	; 1481c <connect_wifi_ap+0x17c>
   14768:	e58d6000 	str	r6, [sp]
   1476c:	e1a03004 	mov	r3, r4
   14770:	e59d200c 	ldr	r2, [sp, #12]
   14774:	e08f1001 	add	r1, pc, r1
   14778:	e08f0000 	add	r0, pc, r0
   1477c:	ebfff6b8 	bl	12264 <sprintf@plt>
   14780:	ea000016 	b	147e0 <connect_wifi_ap+0x140>
			sprintf(gCmdStr, "%s %s",connect_ap,ssid);
   14784:	e59f1094 	ldr	r1, [pc, #148]	; 14820 <connect_wifi_ap+0x180>
   14788:	e59f0094 	ldr	r0, [pc, #148]	; 14824 <connect_wifi_ap+0x184>
   1478c:	e1a03004 	mov	r3, r4
   14790:	e59d200c 	ldr	r2, [sp, #12]
   14794:	e08f1001 	add	r1, pc, r1
   14798:	e08f0000 	add	r0, pc, r0
   1479c:	ea000007 	b	147c0 <connect_wifi_ap+0x120>
		if(pwdLen)
   147a0:	e3550000 	cmp	r5, #0
   147a4:	0a000007 	beq	147c8 <connect_wifi_ap+0x128>
			sprintf(gCmdStr, "/tmp/connect_ap.sh %s %s",ssid,pwd);
   147a8:	e59f1078 	ldr	r1, [pc, #120]	; 14828 <connect_wifi_ap+0x188>
   147ac:	e59f0078 	ldr	r0, [pc, #120]	; 1482c <connect_wifi_ap+0x18c>
   147b0:	e1a03006 	mov	r3, r6
   147b4:	e1a02004 	mov	r2, r4
   147b8:	e08f1001 	add	r1, pc, r1
   147bc:	e08f0000 	add	r0, pc, r0
   147c0:	ebfff6a7 	bl	12264 <sprintf@plt>
   147c4:	ea000005 	b	147e0 <connect_wifi_ap+0x140>
			sprintf(gCmdStr, "/tmp/connect_ap.sh %s",ssid);
   147c8:	e59f1060 	ldr	r1, [pc, #96]	; 14830 <connect_wifi_ap+0x190>
   147cc:	e59f0060 	ldr	r0, [pc, #96]	; 14834 <connect_wifi_ap+0x194>
   147d0:	e1a02004 	mov	r2, r4
   147d4:	e08f1001 	add	r1, pc, r1
   147d8:	e08f0000 	add	r0, pc, r0
   147dc:	ebfff6a0 	bl	12264 <sprintf@plt>
	printf("start CMD:%s \n",gCmdStr);
   147e0:	e59f4050 	ldr	r4, [pc, #80]	; 14838 <connect_wifi_ap+0x198>
   147e4:	e59f0050 	ldr	r0, [pc, #80]	; 1483c <connect_wifi_ap+0x19c>
   147e8:	e08f4004 	add	r4, pc, r4
   147ec:	e1a01004 	mov	r1, r4
   147f0:	e08f0000 	add	r0, pc, r0
   147f4:	ebfff6bb 	bl	122e8 <printf@plt>
	system(gCmdStr);
   147f8:	e1a00004 	mov	r0, r4
}
   147fc:	e28dd078 	add	sp, sp, #120	; 0x78
   14800:	e8bd47f0 	pop	{r4, r5, r6, r7, r8, r9, sl, lr}
	system(gCmdStr);
   14804:	eafff5f7 	b	11fe8 <system@plt>
   14808:	0004390c 	.word	0x0004390c
   1480c:	000001bc 	.word	0x000001bc
   14810:	0002ba3e 	.word	0x0002ba3e
   14814:	00000168 	.word	0x00000168
   14818:	0002b9f5 	.word	0x0002b9f5
   1481c:	00044488 	.word	0x00044488
   14820:	0002b9f1 	.word	0x0002b9f1
   14824:	00044468 	.word	0x00044468
   14828:	0002b9ba 	.word	0x0002b9ba
   1482c:	00044444 	.word	0x00044444
   14830:	0002b9b7 	.word	0x0002b9b7
   14834:	00044428 	.word	0x00044428
   14838:	00044418 	.word	0x00044418
   1483c:	0002b9b1 	.word	0x0002b9b1

00014840 <get_wifi_wpa_status>:


int get_wifi_wpa_status()
{
   14840:	e59f3030 	ldr	r3, [pc, #48]	; 14878 <get_wifi_wpa_status+0x38>
	fprintf(stdout, "get_wifi_wpa_status cfg_done_connected:%d\n" ,cfg_done_connected);
   14844:	e59f2030 	ldr	r2, [pc, #48]	; 1487c <get_wifi_wpa_status+0x3c>
{
   14848:	e08f3003 	add	r3, pc, r3
   1484c:	e92d4010 	push	{r4, lr}
	fprintf(stdout, "get_wifi_wpa_status cfg_done_connected:%d\n" ,cfg_done_connected);
   14850:	e7934002 	ldr	r4, [r3, r2]
   14854:	e59f2024 	ldr	r2, [pc, #36]	; 14880 <get_wifi_wpa_status+0x40>
   14858:	e59f1024 	ldr	r1, [pc, #36]	; 14884 <get_wifi_wpa_status+0x44>
   1485c:	e7933002 	ldr	r3, [r3, r2]
   14860:	e08f1001 	add	r1, pc, r1
   14864:	e5942000 	ldr	r2, [r4]
   14868:	e5930000 	ldr	r0, [r3]
   1486c:	ebfff670 	bl	12234 <fprintf@plt>
	return  cfg_done_connected;
}
   14870:	e5940000 	ldr	r0, [r4]
   14874:	e8bd8010 	pop	{r4, pc}
   14878:	000437b0 	.word	0x000437b0
   1487c:	00000258 	.word	0x00000258
   14880:	000001bc 	.word	0x000001bc
   14884:	0002b950 	.word	0x0002b950

00014888 <smt_demo_end_indicate>:

int smt_demo_end_indicate(u8* event_buffer)
{
   14888:	e92d47f0 	push	{r4, r5, r6, r7, r8, r9, sl, lr}
   1488c:	e59f5210 	ldr	r5, [pc, #528]	; 14aa4 <smt_demo_end_indicate+0x21c>
	time_t broadcast_suc = 0;
	time_t broadcast_suc_end = 0;
	char buff[32];


	fprintf(stdout, "ble smart config end...\n");
   14890:	e59f3210 	ldr	r3, [pc, #528]	; 14aa8 <smt_demo_end_indicate+0x220>
{
   14894:	e08f5005 	add	r5, pc, r5
   14898:	e24dd030 	sub	sp, sp, #48	; 0x30
	int result = 0;
   1489c:	e3a04000 	mov	r4, #0
{
   148a0:	e1a06000 	mov	r6, r0
	int result = 0;
   148a4:	e58d400c 	str	r4, [sp, #12]
	fprintf(stdout, "ble smart config end...\n");
   148a8:	e59f01fc 	ldr	r0, [pc, #508]	; 14aac <smt_demo_end_indicate+0x224>
   148ac:	e7957003 	ldr	r7, [r5, r3]
   148b0:	e08f0000 	add	r0, pc, r0
   148b4:	e5971000 	ldr	r1, [r7]
   148b8:	ebfff651 	bl	12204 <fputs@plt>
	//atbm_smt_status = 0;
	cfg_done_connected = 0;
   148bc:	e59f31ec 	ldr	r3, [pc, #492]	; 14ab0 <smt_demo_end_indicate+0x228>


	do {
			memcpy(&ble_smt, event_buffer, sizeof(struct wsm_ble_smt_ind));
   148c0:	e1a01006 	mov	r1, r6
	cfg_done_connected = 0;
   148c4:	e7958003 	ldr	r8, [r5, r3]
			memcpy(&ble_smt, event_buffer, sizeof(struct wsm_ble_smt_ind));
   148c8:	e59f51e4 	ldr	r5, [pc, #484]	; 14ab4 <smt_demo_end_indicate+0x22c>
   148cc:	e3a02068 	mov	r2, #104	; 0x68
   148d0:	e08f5005 	add	r5, pc, r5
   148d4:	e2850c02 	add	r0, r5, #512	; 0x200
	cfg_done_connected = 0;
   148d8:	e5884000 	str	r4, [r8]
			memcpy(&ble_smt, event_buffer, sizeof(struct wsm_ble_smt_ind));
   148dc:	ebfff5c7 	bl	12000 <memcpy@plt>

			if (ble_smt.status == BLE_SMART_CFG_SSID_PWD_TRANS_END) {
   148e0:	e5956200 	ldr	r6, [r5, #512]	; 0x200
   148e4:	e35600fe 	cmp	r6, #254	; 0xfe
   148e8:	1a000029 	bne	14994 <smt_demo_end_indicate+0x10c>

				broadcast_suc = time((time_t*)NULL);
   148ec:	e1a00004 	mov	r0, r4
   148f0:	ebfff613 	bl	12144 <time@plt>
				fprintf(stdout, "ble smart config ssid pwd trans Done(0x%X) ssid %s pwd %s\n", ble_smt.status, ble_smt.ssid, ble_smt.pwd);
   148f4:	e59f11bc 	ldr	r1, [pc, #444]	; 14ab8 <smt_demo_end_indicate+0x230>
   148f8:	e2859f89 	add	r9, r5, #548	; 0x224
   148fc:	e285af81 	add	sl, r5, #516	; 0x204
   14900:	e58d9000 	str	r9, [sp]
   14904:	e1a0300a 	mov	r3, sl
   14908:	e5952200 	ldr	r2, [r5, #512]	; 0x200
   1490c:	e08f1001 	add	r1, pc, r1
				broadcast_suc = time((time_t*)NULL);
   14910:	e1a06000 	mov	r6, r0
				fprintf(stdout, "ble smart config ssid pwd trans Done(0x%X) ssid %s pwd %s\n", ble_smt.status, ble_smt.ssid, ble_smt.pwd);
   14914:	e5970000 	ldr	r0, [r7]
   14918:	ebfff645 	bl	12234 <fprintf@plt>

				//change_driver_to_wifi(driverName_ble, driverName_wifi);
				connect_wifi_ap(ble_smt.ssid, ble_smt.ssid_len, ble_smt.pwd, ble_smt.pwd_len);
   1491c:	e5d53265 	ldrb	r3, [r5, #613]	; 0x265
   14920:	e1a02009 	mov	r2, r9
   14924:	e5d51264 	ldrb	r1, [r5, #612]	; 0x264
   14928:	e1a0000a 	mov	r0, sl
   1492c:	ebffff5b 	bl	146a0 <connect_wifi_ap>
				
				cmd_system("iwpriv wlan0 common get_conn_state > /tmp/wpa_status.txt",NULL,0);
   14930:	e59f0184 	ldr	r0, [pc, #388]	; 14abc <smt_demo_end_indicate+0x234>
   14934:	e1a02004 	mov	r2, r4
   14938:	e1a01004 	mov	r1, r4
   1493c:	e08f0000 	add	r0, pc, r0
   14940:	ebffff18 	bl	145a8 <cmd_system>
				cmd_system("cat /tmp/wpa_status.txt | grep wifi",buff,32); 
   14944:	e59f0174 	ldr	r0, [pc, #372]	; 14ac0 <smt_demo_end_indicate+0x238>
   14948:	e28d4010 	add	r4, sp, #16
   1494c:	e1a01004 	mov	r1, r4
   14950:	e3a02020 	mov	r2, #32
   14954:	e08f0000 	add	r0, pc, r0
   14958:	ebffff12 	bl	145a8 <cmd_system>
				sscanf(buff,"wifi_status=%d",&result);
   1495c:	e59f1160 	ldr	r1, [pc, #352]	; 14ac4 <smt_demo_end_indicate+0x23c>
   14960:	e28d200c 	add	r2, sp, #12
   14964:	e08f1001 	add	r1, pc, r1
   14968:	e1a00004 	mov	r0, r4
   1496c:	ebfff615 	bl	121c8 <sscanf@plt>
				
				fprintf(stdout, "check_wap_status result:%d pwd:%s len:%d\n", result, ble_smt.pwd, ble_smt.pwd_len);
   14970:	e5d53265 	ldrb	r3, [r5, #613]	; 0x265
   14974:	e59f114c 	ldr	r1, [pc, #332]	; 14ac8 <smt_demo_end_indicate+0x240>
   14978:	e58d3000 	str	r3, [sp]
   1497c:	e59d200c 	ldr	r2, [sp, #12]
   14980:	e1a03009 	mov	r3, r9
   14984:	e08f1001 	add	r1, pc, r1
   14988:	e5970000 	ldr	r0, [r7]
   1498c:	ebfff628 	bl	12234 <fprintf@plt>

				goto config_err;
   14990:	ea00001b 	b	14a04 <smt_demo_end_indicate+0x17c>
			}
			else if (ble_smt.status == BLE_SMART_CFG_STATUS_END) {
   14994:	e35600ff 	cmp	r6, #255	; 0xff
   14998:	1a000013 	bne	149ec <smt_demo_end_indicate+0x164>

			//	result = system("wpa_cli status | tee /tmp/wpa_status.txt");
				cmd_system("iwpriv wlan0 common get_conn_state > /tmp/wpa_status.txt",NULL,0);
   1499c:	e59f0128 	ldr	r0, [pc, #296]	; 14acc <smt_demo_end_indicate+0x244>
   149a0:	e1a02004 	mov	r2, r4
   149a4:	e1a01004 	mov	r1, r4
   149a8:	e08f0000 	add	r0, pc, r0
   149ac:	ebfffefd 	bl	145a8 <cmd_system>
				cmd_system("cat /tmp/wpa_status.txt | grep wifi",buff,32); 
   149b0:	e59f0118 	ldr	r0, [pc, #280]	; 14ad0 <smt_demo_end_indicate+0x248>
   149b4:	e28d5010 	add	r5, sp, #16
   149b8:	e3a02020 	mov	r2, #32
   149bc:	e1a01005 	mov	r1, r5
   149c0:	e08f0000 	add	r0, pc, r0
   149c4:	ebfffef7 	bl	145a8 <cmd_system>
				sscanf(buff,"wifi_status=%d",&result);
   149c8:	e59f1104 	ldr	r1, [pc, #260]	; 14ad4 <smt_demo_end_indicate+0x24c>
   149cc:	e28d200c 	add	r2, sp, #12
   149d0:	e08f1001 	add	r1, pc, r1
   149d4:	e1a00005 	mov	r0, r5
   149d8:	ebfff5fa 	bl	121c8 <sscanf@plt>
				fprintf(stdout, " wap_status:%d\n", result);
   149dc:	e59f10f4 	ldr	r1, [pc, #244]	; 14ad8 <smt_demo_end_indicate+0x250>
   149e0:	e59d200c 	ldr	r2, [sp, #12]
   149e4:	e08f1001 	add	r1, pc, r1
   149e8:	ea000009 	b	14a14 <smt_demo_end_indicate+0x18c>
				//fprintf(stdout,"ble smart config Done(0x%X)\n", ble_smt.status);
				//	goto config_err;
			}
			else if (ble_smt.status == BLE_SMART_CFG_STATUS_SUCESS) {
   149ec:	e2562000 	subs	r2, r6, #0
   149f0:	1a000005 	bne	14a0c <smt_demo_end_indicate+0x184>
				//change_driver_to_wifi(driverName_ble, driverName_wifi);
				//connect_wifi_ap(ble_smt.ssid, ble_smt.ssid_len, ble_smt.pwd, ble_smt.pwd_len);
				fprintf(stdout, "ble smart config Done(0x%X)\n", ble_smt.status);
   149f4:	e59f10e0 	ldr	r1, [pc, #224]	; 14adc <smt_demo_end_indicate+0x254>
   149f8:	e5970000 	ldr	r0, [r7]
   149fc:	e08f1001 	add	r1, pc, r1
   14a00:	ebfff60b 	bl	12234 <fprintf@plt>
   14a04:	e3a0400a 	mov	r4, #10
   14a08:	ea00000b 	b	14a3c <smt_demo_end_indicate+0x1b4>
				goto config_err;

			}
			else {
				fprintf(stdout, "ble smart config err(0x%X)\n", ble_smt.status);
   14a0c:	e59f10cc 	ldr	r1, [pc, #204]	; 14ae0 <smt_demo_end_indicate+0x258>
   14a10:	e08f1001 	add	r1, pc, r1
   14a14:	e5970000 	ldr	r0, [r7]
   14a18:	ebfff605 	bl	12234 <fprintf@plt>
	time_t broadcast_suc = 0;
   14a1c:	e1a06004 	mov	r6, r4
   14a20:	eafffff7 	b	14a04 <smt_demo_end_indicate+0x17c>
config_err:

	while (i < 10) {
		broadcast_suc_end = time((time_t*)NULL);
		cfg_done_connected = smt_check_wpa_status();
		if (((broadcast_suc_end - broadcast_suc) > 10) || (cfg_done_connected == 1)) {   //20 seconds timeout or recievd ack.
   14a24:	e3500001 	cmp	r0, #1
   14a28:	0a00000b 	beq	14a5c <smt_demo_end_indicate+0x1d4>
			fprintf(stdout, "connect_wifi_ap broadcast_suc:%d end:%d, cfg_done_connected:%d\n", broadcast_suc, broadcast_suc_end, cfg_done_connected);
			break;
		}
		sleep(1);
   14a2c:	e3a00001 	mov	r0, #1
   14a30:	ebfff575 	bl	1200c <sleep@plt>
	while (i < 10) {
   14a34:	e2544001 	subs	r4, r4, #1
   14a38:	0a00000e 	beq	14a78 <smt_demo_end_indicate+0x1f0>
		broadcast_suc_end = time((time_t*)NULL);
   14a3c:	e3a00000 	mov	r0, #0
   14a40:	ebfff5bf 	bl	12144 <time@plt>
   14a44:	e1a05000 	mov	r5, r0
		cfg_done_connected = smt_check_wpa_status();
   14a48:	ebfffef6 	bl	14628 <smt_check_wpa_status>
		if (((broadcast_suc_end - broadcast_suc) > 10) || (cfg_done_connected == 1)) {   //20 seconds timeout or recievd ack.
   14a4c:	e0663005 	rsb	r3, r6, r5
   14a50:	e353000a 	cmp	r3, #10
		cfg_done_connected = smt_check_wpa_status();
   14a54:	e5880000 	str	r0, [r8]
		if (((broadcast_suc_end - broadcast_suc) > 10) || (cfg_done_connected == 1)) {   //20 seconds timeout or recievd ack.
   14a58:	dafffff1 	ble	14a24 <smt_demo_end_indicate+0x19c>
			fprintf(stdout, "connect_wifi_ap broadcast_suc:%d end:%d, cfg_done_connected:%d\n", broadcast_suc, broadcast_suc_end, cfg_done_connected);
   14a5c:	e59f1080 	ldr	r1, [pc, #128]	; 14ae4 <smt_demo_end_indicate+0x25c>
   14a60:	e58d0000 	str	r0, [sp]
   14a64:	e1a03005 	mov	r3, r5
   14a68:	e1a02006 	mov	r2, r6
   14a6c:	e08f1001 	add	r1, pc, r1
   14a70:	e5970000 	ldr	r0, [r7]
   14a74:	ebfff5ee 	bl	12234 <fprintf@plt>
		i++;
	}

	if (cfg_done_connected) {
   14a78:	e5983000 	ldr	r3, [r8]
		fprintf(stdout, "exit ble_smt process wifi connected \n");
   14a7c:	e5971000 	ldr	r1, [r7]
	if (cfg_done_connected) {
   14a80:	e3530000 	cmp	r3, #0
		fprintf(stdout, "exit ble_smt process wifi connected \n");
   14a84:	159f005c 	ldrne	r0, [pc, #92]	; 14ae8 <smt_demo_end_indicate+0x260>
   14a88:	108f0000 	addne	r0, pc, r0
	}
	else {
		fprintf(stdout, "exit ble_smt process wifi failed to connect \n");
   14a8c:	059f0058 	ldreq	r0, [pc, #88]	; 14aec <smt_demo_end_indicate+0x264>
   14a90:	008f0000 	addeq	r0, pc, r0
   14a94:	ebfff5da 	bl	12204 <fputs@plt>
	}

	return 0;
}
   14a98:	e3a00000 	mov	r0, #0
   14a9c:	e28dd030 	add	sp, sp, #48	; 0x30
   14aa0:	e8bd87f0 	pop	{r4, r5, r6, r7, r8, r9, sl, pc}
   14aa4:	00043764 	.word	0x00043764
   14aa8:	000001bc 	.word	0x000001bc
   14aac:	0002b92b 	.word	0x0002b92b
   14ab0:	00000258 	.word	0x00000258
   14ab4:	00044330 	.word	0x00044330
   14ab8:	0002b8e8 	.word	0x0002b8e8
   14abc:	0002b792 	.word	0x0002b792
   14ac0:	0002b7b3 	.word	0x0002b7b3
   14ac4:	0002b7c7 	.word	0x0002b7c7
   14ac8:	0002b8ab 	.word	0x0002b8ab
   14acc:	0002b726 	.word	0x0002b726
   14ad0:	0002b747 	.word	0x0002b747
   14ad4:	0002b75b 	.word	0x0002b75b
   14ad8:	0002b875 	.word	0x0002b875
   14adc:	0002b86d 	.word	0x0002b86d
   14ae0:	0002b876 	.word	0x0002b876
   14ae4:	0002b836 	.word	0x0002b836
   14ae8:	0002b85a 	.word	0x0002b85a
   14aec:	0002b878 	.word	0x0002b878

00014af0 <ble_npl_eventq_release>:
{
    evq->q = new wqueue_t();
}
void
ble_npl_eventq_release(struct ble_npl_eventq* evq)
{
   14af0:	e12fff1e 	bx	lr

00014af4 <ble_npl_eventq_is_empty>:
    //evq->q
}

bool
ble_npl_eventq_is_empty(struct ble_npl_eventq *evq)
{
   14af4:	e92d4070 	push	{r4, r5, r6, lr}
    wqueue_t *q = static_cast<wqueue_t *>(evq->q);
   14af8:	e5905000 	ldr	r5, [r0]
        m_queue.remove(item);
        pthread_mutex_unlock(&m_mutex);
    }

    int size() {
        pthread_mutex_lock(&m_mutex);
   14afc:	e285400c 	add	r4, r5, #12
   14b00:	e1a00004 	mov	r0, r4
   14b04:	ebfff564 	bl	1209c <pthread_mutex_lock@plt>
   14b08:	e5955008 	ldr	r5, [r5, #8]
        int size = m_queue.size();
        pthread_mutex_unlock(&m_mutex);
   14b0c:	e1a00004 	mov	r0, r4
   14b10:	ebfff5dc 	bl	12288 <pthread_mutex_unlock@plt>
    if (q->size()) {
        return 1;
    } else {
        return 0;
    }
}
   14b14:	e2950000 	adds	r0, r5, #0
   14b18:	13a00001 	movne	r0, #1
   14b1c:	e8bd8070 	pop	{r4, r5, r6, pc}

00014b20 <ble_npl_eventq_inited>:

int
ble_npl_eventq_inited(const struct ble_npl_eventq *evq)
{
    return (evq->q != NULL);
   14b20:	e5900000 	ldr	r0, [r0]
}
   14b24:	e2900000 	adds	r0, r0, #0
   14b28:	13a00001 	movne	r0, #1
   14b2c:	e12fff1e 	bx	lr

00014b30 <ble_npl_eventq_put>:
void
ble_npl_eventq_put(struct ble_npl_eventq *evq, struct ble_npl_event *ev)
{
    wqueue_t *q = static_cast<wqueue_t *>(evq->q);

    if (ev->ev_queued) {
   14b30:	e5d13000 	ldrb	r3, [r1]
   14b34:	e3530000 	cmp	r3, #0
   14b38:	112fff1e 	bxne	lr
{
   14b3c:	e92d4070 	push	{r4, r5, r6, lr}
    wqueue_t *q = static_cast<wqueue_t *>(evq->q);
   14b40:	e5904000 	ldr	r4, [r0]
        return;
    }

    ev->ev_queued = 1;
   14b44:	e3a03001 	mov	r3, #1
        pthread_mutex_lock(&m_mutex);
   14b48:	e284600c 	add	r6, r4, #12
   14b4c:	e5c13000 	strb	r3, [r1]
   14b50:	e1a00006 	mov	r0, r6
   14b54:	e1a05001 	mov	r5, r1
   14b58:	ebfff54f 	bl	1209c <pthread_mutex_lock@plt>
      allocate(size_type __n, const void* = static_cast<const void*>(0))
      {
	if (__n > this->max_size())
	  std::__throw_bad_alloc();

	return static_cast<_Tp*>(::operator new(__n * sizeof(_Tp)));
   14b5c:	e3a0000c 	mov	r0, #12
   14b60:	ebfff5a1 	bl	121ec <_Znwj@plt>
#if __cplusplus < 201103L
      void
      _M_insert(iterator __position, const value_type& __x)
      {
        _Node* __tmp = _M_create_node(__x);
        __tmp->_M_hook(__position._M_node);
   14b64:	e1a01004 	mov	r1, r4
   14b68:	e5805008 	str	r5, [r0, #8]
   14b6c:	ebfff598 	bl	121d4 <_ZNSt8__detail15_List_node_base7_M_hookEPS0_@plt>
      void _M_inc_size(size_t __n) { _M_impl._M_node._M_data += __n; }
   14b70:	e5943008 	ldr	r3, [r4, #8]
        pthread_cond_signal(&m_condv);
   14b74:	e2840028 	add	r0, r4, #40	; 0x28
   14b78:	e2833001 	add	r3, r3, #1
   14b7c:	e5843008 	str	r3, [r4, #8]
   14b80:	ebfff57b 	bl	12174 <pthread_cond_signal@plt>
        pthread_mutex_unlock(&m_mutex);
   14b84:	e1a00006 	mov	r0, r6
    q->put(ev);
}
   14b88:	e8bd4070 	pop	{r4, r5, r6, lr}
   14b8c:	eafff5bd 	b	12288 <pthread_mutex_unlock@plt>

00014b90 <ble_npl_eventq_get>:

struct ble_npl_event *ble_npl_eventq_get(struct ble_npl_eventq *evq,
                                         ble_npl_time_t tmo)
{
   14b90:	e92d41f0 	push	{r4, r5, r6, r7, r8, lr}
    struct ble_npl_event *ev;
    wqueue_t *q = static_cast<wqueue_t *>(evq->q);
   14b94:	e5904000 	ldr	r4, [r0]
{
   14b98:	e1a05001 	mov	r5, r1
        pthread_mutex_lock(&m_mutex);
   14b9c:	e284600c 	add	r6, r4, #12
   14ba0:	e1a00006 	mov	r0, r6
   14ba4:	ebfff53c 	bl	1209c <pthread_mutex_lock@plt>
        if (tmo) {
   14ba8:	e3550000 	cmp	r5, #0
   14bac:	0a000007 	beq	14bd0 <ble_npl_eventq_get+0x40>
                pthread_cond_wait(&m_condv, &m_mutex);
   14bb0:	e2845028 	add	r5, r4, #40	; 0x28
            while (m_queue.size() == 0) {
   14bb4:	e5943008 	ldr	r3, [r4, #8]
   14bb8:	e3530000 	cmp	r3, #0
   14bbc:	1a000003 	bne	14bd0 <ble_npl_eventq_get+0x40>
                pthread_cond_wait(&m_condv, &m_mutex);
   14bc0:	e1a01006 	mov	r1, r6
   14bc4:	e1a00005 	mov	r0, r5
   14bc8:	ebfff5c9 	bl	122f4 <pthread_cond_wait@plt>
   14bcc:	eafffff8 	b	14bb4 <ble_npl_eventq_get+0x24>
   14bd0:	e5943008 	ldr	r3, [r4, #8]
        if (m_queue.size() != 0) {
   14bd4:	e3530000 	cmp	r3, #0
        T item = NULL;
   14bd8:	01a05003 	moveq	r5, r3
        if (m_queue.size() != 0) {
   14bdc:	0a000007 	beq	14c00 <ble_npl_eventq_get+0x70>
   14be0:	e5947000 	ldr	r7, [r4]
      void _M_dec_size(size_t __n) { _M_impl._M_node._M_data -= __n; }
   14be4:	e2433001 	sub	r3, r3, #1
            item = m_queue.front();
   14be8:	e5975008 	ldr	r5, [r7, #8]
      // Erases element at position given.
      void
      _M_erase(iterator __position) _GLIBCXX_NOEXCEPT
      {
	this->_M_dec_size(1);
        __position._M_node->_M_unhook();
   14bec:	e1a00007 	mov	r0, r7
      void _M_dec_size(size_t __n) { _M_impl._M_node._M_data -= __n; }
   14bf0:	e5843008 	str	r3, [r4, #8]
        __position._M_node->_M_unhook();
   14bf4:	ebfff4f2 	bl	11fc4 <_ZNSt8__detail15_List_node_base9_M_unhookEv@plt>
      }

      // __p is not permitted to be a null pointer.
      void
      deallocate(pointer __p, size_type)
      { ::operator delete(__p); }
   14bf8:	e1a00007 	mov	r0, r7
   14bfc:	ebfff508 	bl	12024 <_ZdlPv@plt>
        pthread_mutex_unlock(&m_mutex);
   14c00:	e1a00006 	mov	r0, r6
   14c04:	ebfff59f 	bl	12288 <pthread_mutex_unlock@plt>

    ev = q->get(tmo);

    if (ev) {
   14c08:	e3550000 	cmp	r5, #0
        ev->ev_queued = 0;
   14c0c:	13a03000 	movne	r3, #0
    }

    return ev;
}
   14c10:	e1a00005 	mov	r0, r5
        ev->ev_queued = 0;
   14c14:	15c53000 	strbne	r3, [r5]
}
   14c18:	e8bd81f0 	pop	{r4, r5, r6, r7, r8, pc}

00014c1c <ble_npl_event_init>:
// ========================================================================

void
ble_npl_event_init(struct ble_npl_event *ev, ble_npl_event_fn *fn,
                   void *arg)
{
   14c1c:	e92d4070 	push	{r4, r5, r6, lr}
   14c20:	e1a04000 	mov	r4, r0
   14c24:	e1a06001 	mov	r6, r1
   14c28:	e1a05002 	mov	r5, r2
    memset(ev, 0, sizeof(*ev));
   14c2c:	e3a01000 	mov	r1, #0
   14c30:	e3a0200c 	mov	r2, #12
   14c34:	ebfff57b 	bl	12228 <memset@plt>
    ev->ev_cb = fn;
   14c38:	e5846004 	str	r6, [r4, #4]
    ev->ev_arg = arg;
   14c3c:	e5845008 	str	r5, [r4, #8]
   14c40:	e8bd8070 	pop	{r4, r5, r6, pc}

00014c44 <ble_npl_event_is_queued>:
}

bool
ble_npl_event_is_queued(struct ble_npl_event *ev)
{
    return ev->ev_queued;
   14c44:	e5d00000 	ldrb	r0, [r0]
}
   14c48:	e2900000 	adds	r0, r0, #0
   14c4c:	13a00001 	movne	r0, #1
   14c50:	e12fff1e 	bx	lr

00014c54 <ble_npl_event_get_arg>:

void *
ble_npl_event_get_arg(struct ble_npl_event *ev)
{
    return ev->ev_arg;
}
   14c54:	e5900008 	ldr	r0, [r0, #8]
   14c58:	e12fff1e 	bx	lr

00014c5c <ble_npl_event_set_arg>:

void
ble_npl_event_set_arg(struct ble_npl_event *ev, void *arg)
{
    ev->ev_arg = arg;
   14c5c:	e5801008 	str	r1, [r0, #8]
   14c60:	e12fff1e 	bx	lr

00014c64 <ble_npl_event_run>:
}

void
ble_npl_event_run(struct ble_npl_event *ev)
{
    assert(ev->ev_cb != NULL);
   14c64:	e5903004 	ldr	r3, [r0, #4]
   14c68:	e3530000 	cmp	r3, #0
   14c6c:	1a000008 	bne	14c94 <ble_npl_event_run+0x30>
   14c70:	e59f3020 	ldr	r3, [pc, #32]	; 14c98 <ble_npl_event_run+0x34>
   14c74:	e59f1020 	ldr	r1, [pc, #32]	; 14c9c <ble_npl_event_run+0x38>
   14c78:	e59f0020 	ldr	r0, [pc, #32]	; 14ca0 <ble_npl_event_run+0x3c>
{
   14c7c:	e92d4010 	push	{r4, lr}
    assert(ev->ev_cb != NULL);
   14c80:	e08f3003 	add	r3, pc, r3
   14c84:	e3a02094 	mov	r2, #148	; 0x94
   14c88:	e08f1001 	add	r1, pc, r1
   14c8c:	e08f0000 	add	r0, pc, r0
   14c90:	ebfff516 	bl	120f0 <__assert@plt>

    ev->ev_cb(ev);
   14c94:	e12fff13 	bx	r3
   14c98:	0002b6b6 	.word	0x0002b6b6
   14c9c:	0002b6d5 	.word	0x0002b6d5
   14ca0:	0002b759 	.word	0x0002b759

00014ca4 <ble_npl_eventq_run>:
{
   14ca4:	e92d4010 	push	{r4, lr}
    ev = ble_npl_eventq_get(evq, BLE_NPL_TIME_FOREVER);
   14ca8:	e3e01102 	mvn	r1, #-2147483648	; 0x80000000
   14cac:	ebffffb7 	bl	14b90 <ble_npl_eventq_get>
}
   14cb0:	e8bd4010 	pop	{r4, lr}
    ble_npl_event_run(ev);
   14cb4:	eaffffea 	b	14c64 <ble_npl_event_run>

00014cb8 <ble_npl_eventq_remove>:
void
ble_npl_eventq_remove(struct ble_npl_eventq *evq, struct ble_npl_event *ev)
{
    wqueue_t *q = static_cast<wqueue_t *>(evq->q);

    if (!ev->ev_queued) {
   14cb8:	e5d13000 	ldrb	r3, [r1]
   14cbc:	e3530000 	cmp	r3, #0
   14cc0:	012fff1e 	bxeq	lr
{
   14cc4:	e92d47f3 	push	{r0, r1, r4, r5, r6, r7, r8, r9, sl, lr}
    wqueue_t *q = static_cast<wqueue_t *>(evq->q);
   14cc8:	e5904000 	ldr	r4, [r0]
        return;
    }

    ev->ev_queued = 0;
   14ccc:	e3a03000 	mov	r3, #0
        pthread_mutex_lock(&m_mutex);
   14cd0:	e284800c 	add	r8, r4, #12
   14cd4:	e5c13000 	strb	r3, [r1]
   14cd8:	e28d9008 	add	r9, sp, #8
   14cdc:	e1a00008 	mov	r0, r8
   14ce0:	e1a06001 	mov	r6, r1
   14ce4:	e5291004 	str	r1, [r9, #-4]!
   14ce8:	ebfff4eb 	bl	1209c <pthread_mutex_lock@plt>
   14cec:	e5945000 	ldr	r5, [r4]
      { return iterator(&this->_M_impl._M_node); }
   14cf0:	e1a07004 	mov	r7, r4
    remove(const value_type& __value)
    {
      iterator __first = begin();
      iterator __last = end();
      iterator __extra = __last;
      while (__first != __last)
   14cf4:	e1540005 	cmp	r4, r5
   14cf8:	0a000011 	beq	14d44 <ble_npl_eventq_remove+0x8c>
	{
	  iterator __next = __first;
	  ++__next;
	  if (*__first == __value)
   14cfc:	e5953008 	ldr	r3, [r5, #8]
	_M_node = _M_node->_M_next;
   14d00:	e595a000 	ldr	sl, [r5]
   14d04:	e1560003 	cmp	r6, r3
   14d08:	0a000001 	beq	14d14 <ble_npl_eventq_remove+0x5c>
	    {
	      // _GLIBCXX_RESOLVE_LIB_DEFECTS
	      // 526. Is it undefined if a function in the standard changes
	      // in parameters?
	      if (std::__addressof(*__first) != std::__addressof(__value))
   14d0c:	e1a0500a 	mov	r5, sl
   14d10:	eafffff7 	b	14cf4 <ble_npl_eventq_remove+0x3c>
      { return static_cast<_Node*>(_M_node)->_M_data; }
   14d14:	e2853008 	add	r3, r5, #8
   14d18:	e1590003 	cmp	r9, r3
   14d1c:	01a07005 	moveq	r7, r5
   14d20:	0afffff9 	beq	14d0c <ble_npl_eventq_remove+0x54>
      void _M_dec_size(size_t __n) { _M_impl._M_node._M_data -= __n; }
   14d24:	e5943008 	ldr	r3, [r4, #8]
        __position._M_node->_M_unhook();
   14d28:	e1a00005 	mov	r0, r5
      void _M_dec_size(size_t __n) { _M_impl._M_node._M_data -= __n; }
   14d2c:	e2433001 	sub	r3, r3, #1
   14d30:	e5843008 	str	r3, [r4, #8]
        __position._M_node->_M_unhook();
   14d34:	ebfff4a2 	bl	11fc4 <_ZNSt8__detail15_List_node_base9_M_unhookEv@plt>
   14d38:	e1a00005 	mov	r0, r5
   14d3c:	ebfff4b8 	bl	12024 <_ZdlPv@plt>
   14d40:	eafffff1 	b	14d0c <ble_npl_eventq_remove+0x54>
	      else
		__extra = __first;
	    }
	  __first = __next;
	}
      if (__extra != __last)
   14d44:	e1540007 	cmp	r4, r7
   14d48:	0a000006 	beq	14d68 <ble_npl_eventq_remove+0xb0>
      void _M_dec_size(size_t __n) { _M_impl._M_node._M_data -= __n; }
   14d4c:	e5943008 	ldr	r3, [r4, #8]
        __position._M_node->_M_unhook();
   14d50:	e1a00007 	mov	r0, r7
      void _M_dec_size(size_t __n) { _M_impl._M_node._M_data -= __n; }
   14d54:	e2433001 	sub	r3, r3, #1
   14d58:	e5843008 	str	r3, [r4, #8]
        __position._M_node->_M_unhook();
   14d5c:	ebfff498 	bl	11fc4 <_ZNSt8__detail15_List_node_base9_M_unhookEv@plt>
   14d60:	e1a00007 	mov	r0, r7
   14d64:	ebfff4ae 	bl	12024 <_ZdlPv@plt>
        pthread_mutex_unlock(&m_mutex);
   14d68:	e1a00008 	mov	r0, r8
    q->remove(ev);
}
   14d6c:	e28dd008 	add	sp, sp, #8
   14d70:	e8bd47f0 	pop	{r4, r5, r6, r7, r8, r9, sl, lr}
   14d74:	eafff543 	b	12288 <pthread_mutex_unlock@plt>

00014d78 <ble_npl_eventq_dflt_get>:
{
   14d78:	e92d4070 	push	{r4, r5, r6, lr}
    if (!dflt_evq.q) {
   14d7c:	e59f402c 	ldr	r4, [pc, #44]	; 14db0 <ble_npl_eventq_dflt_get+0x38>
   14d80:	e08f4004 	add	r4, pc, r4
   14d84:	e5943000 	ldr	r3, [r4]
   14d88:	e3530000 	cmp	r3, #0
   14d8c:	1a000004 	bne	14da4 <ble_npl_eventq_dflt_get+0x2c>
        dflt_evq.q = new wqueue_t();
   14d90:	e3a00058 	mov	r0, #88	; 0x58
   14d94:	ebfff514 	bl	121ec <_Znwj@plt>
   14d98:	e1a05000 	mov	r5, r0
   14d9c:	eb00000d 	bl	14dd8 <_ZN6wqueueIP13ble_npl_eventEC1Ev>
   14da0:	e5845000 	str	r5, [r4]
}
   14da4:	e59f0008 	ldr	r0, [pc, #8]	; 14db4 <ble_npl_eventq_dflt_get+0x3c>
   14da8:	e08f0000 	add	r0, pc, r0
   14dac:	e8bd8070 	pop	{r4, r5, r6, pc}
   14db0:	000440e8 	.word	0x000440e8
   14db4:	000440c0 	.word	0x000440c0

00014db8 <ble_npl_eventq_init>:
{
   14db8:	e92d4070 	push	{r4, r5, r6, lr}
   14dbc:	e1a04000 	mov	r4, r0
    evq->q = new wqueue_t();
   14dc0:	e3a00058 	mov	r0, #88	; 0x58
   14dc4:	ebfff508 	bl	121ec <_Znwj@plt>
   14dc8:	e1a05000 	mov	r5, r0
   14dcc:	eb000001 	bl	14dd8 <_ZN6wqueueIP13ble_npl_eventEC1Ev>
   14dd0:	e5845000 	str	r5, [r4]
   14dd4:	e8bd8070 	pop	{r4, r5, r6, pc}

00014dd8 <_ZN6wqueueIP13ble_npl_eventEC1Ev>:
    wqueue()
   14dd8:	e92d4070 	push	{r4, r5, r6, lr}
   14ddc:	e1a04000 	mov	r4, r0
        pthread_mutexattr_init(&m_mutex_attr);
   14de0:	e2805024 	add	r5, r0, #36	; 0x24
	: _Node_alloc_type(), _M_node()
   14de4:	e3a06000 	mov	r6, #0
   14de8:	e5806008 	str	r6, [r0, #8]
        this->_M_impl._M_node._M_next = &this->_M_impl._M_node;
   14dec:	e5840000 	str	r0, [r4]
        this->_M_impl._M_node._M_prev = &this->_M_impl._M_node;
   14df0:	e5840004 	str	r0, [r4, #4]
   14df4:	e1a00005 	mov	r0, r5
   14df8:	ebfff4e9 	bl	121a4 <pthread_mutexattr_init@plt>
        pthread_mutexattr_settype(&m_mutex_attr, PTHREAD_MUTEX_RECURSIVE);
   14dfc:	e3a01001 	mov	r1, #1
   14e00:	e1a00005 	mov	r0, r5
   14e04:	ebfff48c 	bl	1203c <pthread_mutexattr_settype@plt>
        pthread_mutex_init(&m_mutex, &m_mutex_attr);
   14e08:	e1a01005 	mov	r1, r5
   14e0c:	e284000c 	add	r0, r4, #12
   14e10:	ebfff486 	bl	12030 <pthread_mutex_init@plt>
        pthread_cond_init(&m_condv, NULL);
   14e14:	e1a01006 	mov	r1, r6
   14e18:	e2840028 	add	r0, r4, #40	; 0x28
   14e1c:	ebfff4f5 	bl	121f8 <pthread_cond_init@plt>
    }
   14e20:	e1a00004 	mov	r0, r4
   14e24:	e8bd8070 	pop	{r4, r5, r6, pc}

00014e28 <ble_svc_ans_new_alert_notify>:
 *
 * @return 0 on success, non-zero error code otherwise.
 */
static int
ble_svc_ans_new_alert_notify(uint8_t cat_id, const char * info_str)
{
   14e28:	e92d4070 	push	{r4, r5, r6, lr}
    int info_str_len;

    /* Clear notification to remove old infomation that may persist */
    memset(&ble_svc_ans_new_alert_val, '\0',
   14e2c:	e59f4068 	ldr	r4, [pc, #104]	; 14e9c <ble_svc_ans_new_alert_notify+0x74>
{
   14e30:	e1a06000 	mov	r6, r0
    memset(&ble_svc_ans_new_alert_val, '\0',
   14e34:	e08f4004 	add	r4, pc, r4
{
   14e38:	e1a05001 	mov	r5, r1
    memset(&ble_svc_ans_new_alert_val, '\0',
   14e3c:	e3a02014 	mov	r2, #20
   14e40:	e3a01000 	mov	r1, #0
   14e44:	e1a00004 	mov	r0, r4
   14e48:	ebfff4f6 	bl	12228 <memset@plt>
           BLE_SVC_ANS_NEW_ALERT_MAX_LEN);

    /* Set ID and count values */
    ble_svc_ans_new_alert_val[0] = cat_id;
   14e4c:	e1a03004 	mov	r3, r4
   14e50:	e6c36006 	strb	r6, [r3], r6
    ble_svc_ans_new_alert_val[1] = ble_svc_ans_new_alert_cnt[cat_id];
   14e54:	e5d33014 	ldrb	r3, [r3, #20]

    if (info_str) {
   14e58:	e3550000 	cmp	r5, #0
    ble_svc_ans_new_alert_val[1] = ble_svc_ans_new_alert_cnt[cat_id];
   14e5c:	e5c43001 	strb	r3, [r4, #1]
    if (info_str) {
   14e60:	0a000007 	beq	14e84 <ble_svc_ans_new_alert_notify+0x5c>
        info_str_len = strlen(info_str);
   14e64:	e1a00005 	mov	r0, r5
   14e68:	ebfff488 	bl	12090 <strlen@plt>
            /* If info_str is longer than the max string length only
             * write up to the maximum length */
            memcpy(&ble_svc_ans_new_alert_val[2], info_str,
                   BLE_SVC_ANS_INFO_STR_MAX_LEN);
        } else {
            memcpy(&ble_svc_ans_new_alert_val[2], info_str, info_str_len);
   14e6c:	e1a01005 	mov	r1, r5
        if (info_str_len > BLE_SVC_ANS_INFO_STR_MAX_LEN) {
   14e70:	e3500012 	cmp	r0, #18
        info_str_len = strlen(info_str);
   14e74:	e1a02000 	mov	r2, r0
   14e78:	e2840002 	add	r0, r4, #2
            memcpy(&ble_svc_ans_new_alert_val[2], info_str,
   14e7c:	c3a02012 	movgt	r2, #18
            memcpy(&ble_svc_ans_new_alert_val[2], info_str, info_str_len);
   14e80:	ebfff45e 	bl	12000 <memcpy@plt>
        }
    }
    return ble_gattc_notify(ble_svc_ans_conn_handle,
   14e84:	e59f3014 	ldr	r3, [pc, #20]	; 14ea0 <ble_svc_ans_new_alert_notify+0x78>
                            ble_svc_ans_new_alert_val_handle);
}
   14e88:	e8bd4070 	pop	{r4, r5, r6, lr}
    return ble_gattc_notify(ble_svc_ans_conn_handle,
   14e8c:	e08f3003 	add	r3, pc, r3
   14e90:	e1d311bc 	ldrh	r1, [r3, #28]
   14e94:	e1d301be 	ldrh	r0, [r3, #30]
   14e98:	ea00268c 	b	1e8d0 <ble_gattc_notify>
   14e9c:	00044038 	.word	0x00044038
   14ea0:	00043fe0 	.word	0x00043fe0

00014ea4 <ble_svc_ans_unr_alert_notify>:
 * @return 0 on success, non-zer0 error code otherwise.
 */
static int
ble_svc_ans_unr_alert_notify(uint8_t cat_id)
{
    ble_svc_ans_unr_alert_stat[0] = cat_id;
   14ea4:	e59f301c 	ldr	r3, [pc, #28]	; 14ec8 <ble_svc_ans_unr_alert_notify+0x24>
   14ea8:	e08f3003 	add	r3, pc, r3
   14eac:	e5c30020 	strb	r0, [r3, #32]
    ble_svc_ans_unr_alert_stat[1] = ble_svc_ans_unr_alert_cnt[cat_id];
   14eb0:	e0830000 	add	r0, r3, r0
   14eb4:	e5d02022 	ldrb	r2, [r0, #34]	; 0x22
    return ble_gattc_notify(ble_svc_ans_conn_handle,
   14eb8:	e1d312ba 	ldrh	r1, [r3, #42]	; 0x2a
   14ebc:	e1d301be 	ldrh	r0, [r3, #30]
    ble_svc_ans_unr_alert_stat[1] = ble_svc_ans_unr_alert_cnt[cat_id];
   14ec0:	e5c32021 	strb	r2, [r3, #33]	; 0x21
    return ble_gattc_notify(ble_svc_ans_conn_handle,
   14ec4:	ea002681 	b	1e8d0 <ble_gattc_notify>
   14ec8:	00043fc4 	.word	0x00043fc4

00014ecc <ble_svc_ans_chr_write>:
 */
static int
ble_svc_ans_chr_write(struct os_mbuf *om, uint16_t min_len,
                      uint16_t max_len, void *dst,
                      uint16_t *len)
{
   14ecc:	e92d4010 	push	{r4, lr}
    uint16_t om_len;
    int rc;

    om_len = OS_MBUF_PKTLEN(om);
   14ed0:	e1d0e1b0 	ldrh	lr, [r0, #16]
    if (om_len < min_len || om_len > max_len) {
   14ed4:	e15e0002 	cmp	lr, r2
   14ed8:	93a0c000 	movls	ip, #0
   14edc:	83a0c001 	movhi	ip, #1
   14ee0:	e15e0001 	cmp	lr, r1
   14ee4:	21a0100c 	movcs	r1, ip
   14ee8:	338c1001 	orrcc	r1, ip, #1
   14eec:	e3510000 	cmp	r1, #0
   14ef0:	1a000006 	bne	14f10 <ble_svc_ans_chr_write+0x44>
   14ef4:	e1a01003 	mov	r1, r3
        return BLE_ATT_ERR_INVALID_ATTR_VALUE_LEN;
    }

    rc = ble_hs_mbuf_to_flat(om, dst, max_len, len);
   14ef8:	e59d3008 	ldr	r3, [sp, #8]
   14efc:	eb00410d 	bl	25338 <ble_hs_mbuf_to_flat>
    if (rc != 0) {
        return BLE_ATT_ERR_UNLIKELY;
    }

    return 0;
   14f00:	e3500000 	cmp	r0, #0
   14f04:	13a0000e 	movne	r0, #14
   14f08:	03a00000 	moveq	r0, #0
   14f0c:	e8bd8010 	pop	{r4, pc}
        return BLE_ATT_ERR_INVALID_ATTR_VALUE_LEN;
   14f10:	e3a0000d 	mov	r0, #13
}
   14f14:	e8bd8010 	pop	{r4, pc}

00014f18 <ble_svc_ans_access>:
{
   14f18:	e92d4073 	push	{r0, r1, r4, r5, r6, lr}
    uuid16 = ble_uuid_u16(ctxt->chr->uuid);
   14f1c:	e5923008 	ldr	r3, [r2, #8]
{
   14f20:	e1a04002 	mov	r4, r2
    uuid16 = ble_uuid_u16(ctxt->chr->uuid);
   14f24:	e5930000 	ldr	r0, [r3]
   14f28:	eb005cfd 	bl	2c324 <ble_uuid_u16>
    assert(uuid16 != 0);
   14f2c:	e3500000 	cmp	r0, #0
   14f30:	1a000007 	bne	14f54 <ble_svc_ans_access+0x3c>
   14f34:	e59f331c 	ldr	r3, [pc, #796]	; 15258 <ble_svc_ans_access+0x340>
   14f38:	e59f131c 	ldr	r1, [pc, #796]	; 1525c <ble_svc_ans_access+0x344>
   14f3c:	e59f031c 	ldr	r0, [pc, #796]	; 15260 <ble_svc_ans_access+0x348>
   14f40:	e08f3003 	add	r3, pc, r3
   14f44:	e3a020a4 	mov	r2, #164	; 0xa4
   14f48:	e08f1001 	add	r1, pc, r1
   14f4c:	e08f0000 	add	r0, pc, r0
   14f50:	ea000013 	b	14fa4 <ble_svc_ans_access+0x8c>
    switch (uuid16) {
   14f54:	e2400da9 	sub	r0, r0, #10816	; 0x2a40
   14f58:	e2400004 	sub	r0, r0, #4
   14f5c:	e3500004 	cmp	r0, #4
   14f60:	908ff100 	addls	pc, pc, r0, lsl #2
   14f64:	ea0000ae 	b	15224 <ble_svc_ans_access+0x30c>
   14f68:	ea000051 	b	150b4 <ble_svc_ans_access+0x19c>
   14f6c:	ea00003e 	b	1506c <ble_svc_ans_access+0x154>
   14f70:	ea000016 	b	14fd0 <ble_svc_ans_access+0xb8>
   14f74:	ea000000 	b	14f7c <ble_svc_ans_access+0x64>
   14f78:	ea00002b 	b	1502c <ble_svc_ans_access+0x114>
        assert(ctxt->op == BLE_GATT_ACCESS_OP_READ_CHR);
   14f7c:	e5d43000 	ldrb	r3, [r4]
   14f80:	e3530000 	cmp	r3, #0
   14f84:	0a000007 	beq	14fa8 <ble_svc_ans_access+0x90>
   14f88:	e59f32d4 	ldr	r3, [pc, #724]	; 15264 <ble_svc_ans_access+0x34c>
   14f8c:	e59f12d4 	ldr	r1, [pc, #724]	; 15268 <ble_svc_ans_access+0x350>
   14f90:	e59f02d4 	ldr	r0, [pc, #724]	; 1526c <ble_svc_ans_access+0x354>
   14f94:	e08f3003 	add	r3, pc, r3
   14f98:	e3a020a8 	mov	r2, #168	; 0xa8
   14f9c:	e08f1001 	add	r1, pc, r1
   14fa0:	e08f0000 	add	r0, pc, r0
   14fa4:	ebfff451 	bl	120f0 <__assert@plt>
        rc = os_mbuf_append(ctxt->om, &ble_svc_ans_new_alert_cat,
   14fa8:	e59f12c0 	ldr	r1, [pc, #704]	; 15270 <ble_svc_ans_access+0x358>
   14fac:	e3a02001 	mov	r2, #1
   14fb0:	e08f1001 	add	r1, pc, r1
   14fb4:	e281102c 	add	r1, r1, #44	; 0x2c
   14fb8:	e5940004 	ldr	r0, [r4, #4]
   14fbc:	eb006b4d 	bl	2fcf8 <os_mbuf_append>
        return rc == 0 ? 0 : BLE_ATT_ERR_INSUFFICIENT_RES;
   14fc0:	e3500000 	cmp	r0, #0
   14fc4:	13a00011 	movne	r0, #17
   14fc8:	1a0000a0 	bne	15250 <ble_svc_ans_access+0x338>
   14fcc:	ea00009c 	b	15244 <ble_svc_ans_access+0x32c>
        if (ctxt->op == BLE_GATT_ACCESS_OP_WRITE_CHR) {
   14fd0:	e5d43000 	ldrb	r3, [r4]
   14fd4:	e3530001 	cmp	r3, #1
   14fd8:	1a000006 	bne	14ff8 <ble_svc_ans_access+0xe0>
            rc = ble_svc_ans_chr_write(ctxt->om, 0,
   14fdc:	e59f3290 	ldr	r3, [pc, #656]	; 15274 <ble_svc_ans_access+0x35c>
   14fe0:	e3a01000 	mov	r1, #0
   14fe4:	e08f3003 	add	r3, pc, r3
   14fe8:	e283202e 	add	r2, r3, #46	; 0x2e
   14fec:	e58d2000 	str	r2, [sp]
   14ff0:	e3a02014 	mov	r2, #20
   14ff4:	ea000026 	b	15094 <ble_svc_ans_access+0x17c>
        } else if (ctxt->op == BLE_GATT_ACCESS_OP_READ_CHR) {
   14ff8:	e3530000 	cmp	r3, #0
            rc = os_mbuf_append(ctxt->om, &ble_svc_ans_new_alert_val,
   14ffc:	059f1274 	ldreq	r1, [pc, #628]	; 15278 <ble_svc_ans_access+0x360>
   15000:	03a02014 	moveq	r2, #20
   15004:	008f1001 	addeq	r1, pc, r1
   15008:	0affffea 	beq	14fb8 <ble_svc_ans_access+0xa0>
        assert(0);
   1500c:	e59f3268 	ldr	r3, [pc, #616]	; 1527c <ble_svc_ans_access+0x364>
   15010:	e59f1268 	ldr	r1, [pc, #616]	; 15280 <ble_svc_ans_access+0x368>
   15014:	e59f0268 	ldr	r0, [pc, #616]	; 15284 <ble_svc_ans_access+0x36c>
   15018:	e08f3003 	add	r3, pc, r3
   1501c:	e3a020bb 	mov	r2, #187	; 0xbb
   15020:	e08f1001 	add	r1, pc, r1
   15024:	e08f0000 	add	r0, pc, r0
   15028:	eaffffdd 	b	14fa4 <ble_svc_ans_access+0x8c>
        assert(ctxt->op == BLE_GATT_ACCESS_OP_READ_CHR);
   1502c:	e5d43000 	ldrb	r3, [r4]
   15030:	e3530000 	cmp	r3, #0
   15034:	0a000007 	beq	15058 <ble_svc_ans_access+0x140>
   15038:	e59f3248 	ldr	r3, [pc, #584]	; 15288 <ble_svc_ans_access+0x370>
   1503c:	e59f1248 	ldr	r1, [pc, #584]	; 1528c <ble_svc_ans_access+0x374>
   15040:	e59f0248 	ldr	r0, [pc, #584]	; 15290 <ble_svc_ans_access+0x378>
   15044:	e08f3003 	add	r3, pc, r3
   15048:	e3a020be 	mov	r2, #190	; 0xbe
   1504c:	e08f1001 	add	r1, pc, r1
   15050:	e08f0000 	add	r0, pc, r0
   15054:	eaffffd2 	b	14fa4 <ble_svc_ans_access+0x8c>
        rc = os_mbuf_append(ctxt->om, &ble_svc_ans_unr_alert_cat,
   15058:	e59f1234 	ldr	r1, [pc, #564]	; 15294 <ble_svc_ans_access+0x37c>
   1505c:	e3a02001 	mov	r2, #1
   15060:	e08f1001 	add	r1, pc, r1
   15064:	e2811030 	add	r1, r1, #48	; 0x30
   15068:	eaffffd2 	b	14fb8 <ble_svc_ans_access+0xa0>
        if (ctxt->op == BLE_GATT_ACCESS_OP_WRITE_CHR) {
   1506c:	e5d43000 	ldrb	r3, [r4]
   15070:	e3530001 	cmp	r3, #1
   15074:	1a000009 	bne	150a0 <ble_svc_ans_access+0x188>
            rc = ble_svc_ans_chr_write(ctxt->om,
   15078:	e3a03000 	mov	r3, #0
   1507c:	e58d3000 	str	r3, [sp]
   15080:	e59f3210 	ldr	r3, [pc, #528]	; 15298 <ble_svc_ans_access+0x380>
   15084:	e3a02002 	mov	r2, #2
   15088:	e08f3003 	add	r3, pc, r3
   1508c:	e2833020 	add	r3, r3, #32
   15090:	e1a01002 	mov	r1, r2
   15094:	e5940004 	ldr	r0, [r4, #4]
   15098:	ebffff8b 	bl	14ecc <ble_svc_ans_chr_write>
            return rc;
   1509c:	ea00006b 	b	15250 <ble_svc_ans_access+0x338>
            rc = os_mbuf_append(ctxt->om, &ble_svc_ans_unr_alert_stat,
   150a0:	e59f11f4 	ldr	r1, [pc, #500]	; 1529c <ble_svc_ans_access+0x384>
   150a4:	e3a02002 	mov	r2, #2
   150a8:	e08f1001 	add	r1, pc, r1
   150ac:	e2811020 	add	r1, r1, #32
   150b0:	eaffffc0 	b	14fb8 <ble_svc_ans_access+0xa0>
        if (ctxt->op == BLE_GATT_ACCESS_OP_WRITE_CHR) {
   150b4:	e5d45000 	ldrb	r5, [r4]
   150b8:	e3550001 	cmp	r5, #1
   150bc:	0a000001 	beq	150c8 <ble_svc_ans_access+0x1b0>
        return rc;
   150c0:	e3a0000e 	mov	r0, #14
   150c4:	ea000061 	b	15250 <ble_svc_ans_access+0x338>
            rc = ble_svc_ans_chr_write(ctxt->om,
   150c8:	e59f61d0 	ldr	r6, [pc, #464]	; 152a0 <ble_svc_ans_access+0x388>
   150cc:	e3a03000 	mov	r3, #0
   150d0:	e3a02002 	mov	r2, #2
   150d4:	e08f6006 	add	r6, pc, r6
   150d8:	e58d3000 	str	r3, [sp]
   150dc:	e1a01002 	mov	r1, r2
   150e0:	e2863031 	add	r3, r6, #49	; 0x31
   150e4:	e5940004 	ldr	r0, [r4, #4]
   150e8:	ebffff77 	bl	14ecc <ble_svc_ans_chr_write>
            if (rc != 0) {
   150ec:	e3500000 	cmp	r0, #0
   150f0:	1a000056 	bne	15250 <ble_svc_ans_access+0x338>
            cat_id = ble_svc_ans_alert_not_ctrl_pt[1];
   150f4:	e5d60032 	ldrb	r0, [r6, #50]	; 0x32
            if (cat_id < BLE_SVC_ANS_CAT_NUM) {
   150f8:	e3500007 	cmp	r0, #7
                cat_bit_mask = (1 << cat_id);
   150fc:	91a03015 	lslls	r3, r5, r0
   15100:	920330ff 	andls	r3, r3, #255	; 0xff
            if (cat_id < BLE_SVC_ANS_CAT_NUM) {
   15104:	9a000002 	bls	15114 <ble_svc_ans_access+0x1fc>
            } else if (cat_id == 0xff) {
   15108:	e35000ff 	cmp	r0, #255	; 0xff
   1510c:	1affffeb 	bne	150c0 <ble_svc_ans_access+0x1a8>
   15110:	e1a03000 	mov	r3, r0
            cmd_id = ble_svc_ans_alert_not_ctrl_pt[0];
   15114:	e59f2188 	ldr	r2, [pc, #392]	; 152a4 <ble_svc_ans_access+0x38c>
   15118:	e08f2002 	add	r2, pc, r2
            switch (cmd_id) {
   1511c:	e5d22031 	ldrb	r2, [r2, #49]	; 0x31
   15120:	e3520005 	cmp	r2, #5
   15124:	908ff102 	addls	pc, pc, r2, lsl #2
   15128:	ea000047 	b	1524c <ble_svc_ans_access+0x334>
   1512c:	ea000004 	b	15144 <ble_svc_ans_access+0x22c>
   15130:	ea000008 	b	15158 <ble_svc_ans_access+0x240>
   15134:	ea00000c 	b	1516c <ble_svc_ans_access+0x254>
   15138:	ea000011 	b	15184 <ble_svc_ans_access+0x26c>
   1513c:	ea000016 	b	1519c <ble_svc_ans_access+0x284>
   15140:	ea000027 	b	151e4 <ble_svc_ans_access+0x2cc>
                ble_svc_ans_new_alert_cat |= cat_bit_mask;
   15144:	e59f115c 	ldr	r1, [pc, #348]	; 152a8 <ble_svc_ans_access+0x390>
   15148:	e08f1001 	add	r1, pc, r1
   1514c:	e5d1202c 	ldrb	r2, [r1, #44]	; 0x2c
   15150:	e1833002 	orr	r3, r3, r2
   15154:	ea000008 	b	1517c <ble_svc_ans_access+0x264>
                ble_svc_ans_unr_alert_cat |= cat_bit_mask;
   15158:	e59f114c 	ldr	r1, [pc, #332]	; 152ac <ble_svc_ans_access+0x394>
   1515c:	e08f1001 	add	r1, pc, r1
   15160:	e5d12030 	ldrb	r2, [r1, #48]	; 0x30
   15164:	e1833002 	orr	r3, r3, r2
   15168:	ea000009 	b	15194 <ble_svc_ans_access+0x27c>
                ble_svc_ans_new_alert_cat &= ~cat_bit_mask;
   1516c:	e59f113c 	ldr	r1, [pc, #316]	; 152b0 <ble_svc_ans_access+0x398>
   15170:	e08f1001 	add	r1, pc, r1
   15174:	e5d1202c 	ldrb	r2, [r1, #44]	; 0x2c
   15178:	e1c23003 	bic	r3, r2, r3
   1517c:	e5c1302c 	strb	r3, [r1, #44]	; 0x2c
   15180:	ea00002f 	b	15244 <ble_svc_ans_access+0x32c>
                ble_svc_ans_unr_alert_cat &= ~cat_bit_mask;
   15184:	e59f1128 	ldr	r1, [pc, #296]	; 152b4 <ble_svc_ans_access+0x39c>
   15188:	e08f1001 	add	r1, pc, r1
   1518c:	e5d12030 	ldrb	r2, [r1, #48]	; 0x30
   15190:	e1c23003 	bic	r3, r2, r3
   15194:	e5c13030 	strb	r3, [r1, #48]	; 0x30
   15198:	ea000029 	b	15244 <ble_svc_ans_access+0x32c>
                if (cat_id == 0xff) {
   1519c:	e35000ff 	cmp	r0, #255	; 0xff
   151a0:	1a00000c 	bne	151d8 <ble_svc_ans_access+0x2c0>
                        if ((ble_svc_ans_new_alert_cat >> i) & 0x01) {
   151a4:	e59f510c 	ldr	r5, [pc, #268]	; 152b8 <ble_svc_ans_access+0x3a0>
   151a8:	e3a04007 	mov	r4, #7
   151ac:	e08f5005 	add	r5, pc, r5
   151b0:	e5d5302c 	ldrb	r3, [r5, #44]	; 0x2c
   151b4:	e1a03453 	asr	r3, r3, r4
   151b8:	e3130001 	tst	r3, #1
   151bc:	0a000002 	beq	151cc <ble_svc_ans_access+0x2b4>
                            ble_svc_ans_new_alert_notify(i, NULL);
   151c0:	e20400ff 	and	r0, r4, #255	; 0xff
   151c4:	e3a01000 	mov	r1, #0
   151c8:	ebffff16 	bl	14e28 <ble_svc_ans_new_alert_notify>
                    for (i = BLE_SVC_ANS_CAT_NUM - 1; i > 0; --i) {
   151cc:	e2544001 	subs	r4, r4, #1
   151d0:	1afffff6 	bne	151b0 <ble_svc_ans_access+0x298>
   151d4:	ea00001a 	b	15244 <ble_svc_ans_access+0x32c>
                    ble_svc_ans_new_alert_notify(cat_id, NULL);
   151d8:	e3a01000 	mov	r1, #0
   151dc:	ebffff11 	bl	14e28 <ble_svc_ans_new_alert_notify>
   151e0:	ea000017 	b	15244 <ble_svc_ans_access+0x32c>
                if (cat_id == 0xff) {
   151e4:	e35000ff 	cmp	r0, #255	; 0xff
   151e8:	1a00000b 	bne	1521c <ble_svc_ans_access+0x304>
                        if ((ble_svc_ans_unr_alert_cat >> i) & 0x01) {
   151ec:	e59f50c8 	ldr	r5, [pc, #200]	; 152bc <ble_svc_ans_access+0x3a4>
   151f0:	e3a04007 	mov	r4, #7
   151f4:	e08f5005 	add	r5, pc, r5
   151f8:	e5d53030 	ldrb	r3, [r5, #48]	; 0x30
   151fc:	e1a03453 	asr	r3, r3, r4
   15200:	e3130001 	tst	r3, #1
   15204:	0a000001 	beq	15210 <ble_svc_ans_access+0x2f8>
                            ble_svc_ans_unr_alert_notify(i);
   15208:	e20400ff 	and	r0, r4, #255	; 0xff
   1520c:	ebffff24 	bl	14ea4 <ble_svc_ans_unr_alert_notify>
                    for (i = BLE_SVC_ANS_CAT_NUM - 1; i > 0; --i) {
   15210:	e2544001 	subs	r4, r4, #1
   15214:	1afffff7 	bne	151f8 <ble_svc_ans_access+0x2e0>
   15218:	ea000009 	b	15244 <ble_svc_ans_access+0x32c>
                    ble_svc_ans_unr_alert_notify(cat_id);
   1521c:	ebffff20 	bl	14ea4 <ble_svc_ans_unr_alert_notify>
   15220:	ea000007 	b	15244 <ble_svc_ans_access+0x32c>
        assert(0);
   15224:	e59f3094 	ldr	r3, [pc, #148]	; 152c0 <ble_svc_ans_access+0x3a8>
   15228:	e59f1094 	ldr	r1, [pc, #148]	; 152c4 <ble_svc_ans_access+0x3ac>
   1522c:	e59f0094 	ldr	r0, [pc, #148]	; 152c8 <ble_svc_ans_access+0x3b0>
   15230:	e08f3003 	add	r3, pc, r3
   15234:	e59f2090 	ldr	r2, [pc, #144]	; 152cc <ble_svc_ans_access+0x3b4>
   15238:	e08f1001 	add	r1, pc, r1
   1523c:	e08f0000 	add	r0, pc, r0
   15240:	eaffff57 	b	14fa4 <ble_svc_ans_access+0x8c>
        return rc == 0 ? 0 : BLE_ATT_ERR_INSUFFICIENT_RES;
   15244:	e3a00000 	mov	r0, #0
   15248:	ea000000 	b	15250 <ble_svc_ans_access+0x338>
                return BLE_SVC_ANS_ERR_CMD_NOT_SUPPORTED;
   1524c:	e3a000a0 	mov	r0, #160	; 0xa0
}
   15250:	e28dd008 	add	sp, sp, #8
   15254:	e8bd8070 	pop	{r4, r5, r6, pc}
   15258:	0002b4b9 	.word	0x0002b4b9
   1525c:	0002b4d5 	.word	0x0002b4d5
   15260:	0002b571 	.word	0x0002b571
   15264:	0002b465 	.word	0x0002b465
   15268:	0002b481 	.word	0x0002b481
   1526c:	0002b529 	.word	0x0002b529
   15270:	00043ebc 	.word	0x00043ebc
   15274:	00043e88 	.word	0x00043e88
   15278:	00043e68 	.word	0x00043e68
   1527c:	0002b3e1 	.word	0x0002b3e1
   15280:	0002b3fd 	.word	0x0002b3fd
   15284:	00030b92 	.word	0x00030b92
   15288:	0002b3b5 	.word	0x0002b3b5
   1528c:	0002b3d1 	.word	0x0002b3d1
   15290:	0002b479 	.word	0x0002b479
   15294:	00043e0c 	.word	0x00043e0c
   15298:	00043de4 	.word	0x00043de4
   1529c:	00043dc4 	.word	0x00043dc4
   152a0:	00043d98 	.word	0x00043d98
   152a4:	00043d54 	.word	0x00043d54
   152a8:	00043d24 	.word	0x00043d24
   152ac:	00043d10 	.word	0x00043d10
   152b0:	00043cfc 	.word	0x00043cfc
   152b4:	00043ce4 	.word	0x00043ce4
   152b8:	00043cc0 	.word	0x00043cc0
   152bc:	00043c78 	.word	0x00043c78
   152c0:	0002b1c9 	.word	0x0002b1c9
   152c4:	0002b1e5 	.word	0x0002b1e5
   152c8:	0003097a 	.word	0x0003097a
   152cc:	0000011a 	.word	0x0000011a

000152d0 <ble_svc_ans_on_gap_connect>:
    ble_svc_ans_conn_handle = conn_handle;
   152d0:	e59f3008 	ldr	r3, [pc, #8]	; 152e0 <ble_svc_ans_on_gap_connect+0x10>
   152d4:	e08f3003 	add	r3, pc, r3
   152d8:	e1c301be 	strh	r0, [r3, #30]
   152dc:	e12fff1e 	bx	lr
   152e0:	00043b98 	.word	0x00043b98

000152e4 <ble_svc_ans_new_alert_add>:
    if (cat_id < BLE_SVC_ANS_CAT_NUM) {
   152e4:	e3500007 	cmp	r0, #7
   152e8:	8a00000e 	bhi	15328 <ble_svc_ans_new_alert_add+0x44>
    if ((cat_bit_mask & ble_svc_ans_new_alert_cat) == 0) {
   152ec:	e59f303c 	ldr	r3, [pc, #60]	; 15330 <ble_svc_ans_new_alert_add+0x4c>
{
   152f0:	e52de004 	push	{lr}		; (str lr, [sp, #-4]!)
    if ((cat_bit_mask & ble_svc_ans_new_alert_cat) == 0) {
   152f4:	e08f3003 	add	r3, pc, r3
   152f8:	e5d3c02c 	ldrb	ip, [r3, #44]	; 0x2c
   152fc:	e3a0e001 	mov	lr, #1
   15300:	e01cc01e 	ands	ip, ip, lr, lsl r0
   15304:	0a000005 	beq	15320 <ble_svc_ans_new_alert_add+0x3c>
    ble_svc_ans_new_alert_cnt[cat_id] += 1;
   15308:	e0833000 	add	r3, r3, r0
   1530c:	e5d32014 	ldrb	r2, [r3, #20]
   15310:	e082200e 	add	r2, r2, lr
   15314:	e5c32014 	strb	r2, [r3, #20]
}
   15318:	e49de004 	pop	{lr}		; (ldr lr, [sp], #4)
    return ble_svc_ans_new_alert_notify(cat_id, info_str);
   1531c:	eafffec1 	b	14e28 <ble_svc_ans_new_alert_notify>
}
   15320:	e3a00003 	mov	r0, #3
   15324:	e49df004 	pop	{pc}		; (ldr pc, [sp], #4)
   15328:	e3a00003 	mov	r0, #3
   1532c:	e12fff1e 	bx	lr
   15330:	00043b78 	.word	0x00043b78

00015334 <ble_svc_ans_unr_alert_add>:
    if (cat_id < BLE_SVC_ANS_CAT_NUM) {
   15334:	e3500007 	cmp	r0, #7
   15338:	8a00000a 	bhi	15368 <ble_svc_ans_unr_alert_add+0x34>
    if ((cat_bit_mask & ble_svc_ans_unr_alert_cat) == 0) {
   1533c:	e59f302c 	ldr	r3, [pc, #44]	; 15370 <ble_svc_ans_unr_alert_add+0x3c>
   15340:	e3a0c001 	mov	ip, #1
   15344:	e08f3003 	add	r3, pc, r3
   15348:	e5d31030 	ldrb	r1, [r3, #48]	; 0x30
   1534c:	e011101c 	ands	r1, r1, ip, lsl r0
   15350:	0a000004 	beq	15368 <ble_svc_ans_unr_alert_add+0x34>
    ble_svc_ans_unr_alert_cnt[cat_id] += 1;
   15354:	e0833000 	add	r3, r3, r0
   15358:	e5d32022 	ldrb	r2, [r3, #34]	; 0x22
   1535c:	e082200c 	add	r2, r2, ip
   15360:	e5c32022 	strb	r2, [r3, #34]	; 0x22
    return ble_svc_ans_unr_alert_notify(cat_id);
   15364:	eafffece 	b	14ea4 <ble_svc_ans_unr_alert_notify>
}
   15368:	e3a00003 	mov	r0, #3
   1536c:	e12fff1e 	bx	lr
   15370:	00043b28 	.word	0x00043b28

00015374 <ble_svc_ans_init>:
 * XXX: We should technically be able to change the new alert and
 *      unread alert catagories when we have no active connections.
 */
void
ble_svc_ans_init(void)
{
   15374:	e92d4010 	push	{r4, lr}
    int rc;

    /* Ensure this function only gets called by sysinit. */
    SYSINIT_ASSERT_ACTIVE();

    rc = ble_gatts_count_cfg(ble_svc_ans_defs);
   15378:	e59f407c 	ldr	r4, [pc, #124]	; 153fc <ble_svc_ans_init+0x88>
   1537c:	e08f4004 	add	r4, pc, r4
   15380:	e1a00004 	mov	r0, r4
   15384:	eb002d29 	bl	20830 <ble_gatts_count_cfg>
    SYSINIT_PANIC_ASSERT(rc == 0);
   15388:	e3500000 	cmp	r0, #0
   1538c:	0a000008 	beq	153b4 <ble_svc_ans_init+0x40>
   15390:	e59f3068 	ldr	r3, [pc, #104]	; 15400 <ble_svc_ans_init+0x8c>
   15394:	e59f1068 	ldr	r1, [pc, #104]	; 15404 <ble_svc_ans_init+0x90>
   15398:	e59f0068 	ldr	r0, [pc, #104]	; 15408 <ble_svc_ans_init+0x94>
   1539c:	e08f3003 	add	r3, pc, r3
   153a0:	e2833013 	add	r3, r3, #19
   153a4:	e59f2060 	ldr	r2, [pc, #96]	; 1540c <ble_svc_ans_init+0x98>
   153a8:	e08f1001 	add	r1, pc, r1
   153ac:	e08f0000 	add	r0, pc, r0
   153b0:	ea00000b 	b	153e4 <ble_svc_ans_init+0x70>

    rc = ble_gatts_add_svcs(ble_svc_ans_defs);
   153b4:	e1a00004 	mov	r0, r4
   153b8:	eb002ce7 	bl	2075c <ble_gatts_add_svcs>
    SYSINIT_PANIC_ASSERT(rc == 0);
   153bc:	e3500000 	cmp	r0, #0
   153c0:	0a000008 	beq	153e8 <ble_svc_ans_init+0x74>
   153c4:	e59f3044 	ldr	r3, [pc, #68]	; 15410 <ble_svc_ans_init+0x9c>
   153c8:	e59f1044 	ldr	r1, [pc, #68]	; 15414 <ble_svc_ans_init+0xa0>
   153cc:	e59f0044 	ldr	r0, [pc, #68]	; 15418 <ble_svc_ans_init+0xa4>
   153d0:	e08f3003 	add	r3, pc, r3
   153d4:	e2833013 	add	r3, r3, #19
   153d8:	e3a02f73 	mov	r2, #460	; 0x1cc
   153dc:	e08f1001 	add	r1, pc, r1
   153e0:	e08f0000 	add	r0, pc, r0
   153e4:	ebfff341 	bl	120f0 <__assert@plt>

    ble_svc_ans_new_alert_cat = MYNEWT_VAL(BLE_SVC_ANS_NEW_ALERT_CAT);
   153e8:	e59f302c 	ldr	r3, [pc, #44]	; 1541c <ble_svc_ans_init+0xa8>
   153ec:	e08f3003 	add	r3, pc, r3
   153f0:	e5c3002c 	strb	r0, [r3, #44]	; 0x2c
    ble_svc_ans_unr_alert_cat = MYNEWT_VAL(BLE_SVC_ANS_UNR_ALERT_CAT);
   153f4:	e5c30030 	strb	r0, [r3, #48]	; 0x30
   153f8:	e8bd8010 	pop	{r4, pc}
   153fc:	000414d8 	.word	0x000414d8
   15400:	0002b05d 	.word	0x0002b05d
   15404:	0002b075 	.word	0x0002b075
   15408:	0002a78e 	.word	0x0002a78e
   1540c:	000001c9 	.word	0x000001c9
   15410:	0002b029 	.word	0x0002b029
   15414:	0002b041 	.word	0x0002b041
   15418:	0002a75a 	.word	0x0002a75a
   1541c:	00043a80 	.word	0x00043a80

00015420 <ble_svc_bas_access>:
 */
static int
ble_svc_bas_access(uint16_t conn_handle, uint16_t attr_handle,
                          struct ble_gatt_access_ctxt *ctxt,
                          void *arg)
{
   15420:	e92d4037 	push	{r0, r1, r2, r4, r5, lr}
    uint16_t uuid16 = ble_uuid_u16(ctxt->chr->uuid);
   15424:	e5923008 	ldr	r3, [r2, #8]
{
   15428:	e1a04002 	mov	r4, r2
    uint16_t uuid16 = ble_uuid_u16(ctxt->chr->uuid);
   1542c:	e5930000 	ldr	r0, [r3]
   15430:	eb005bbb 	bl	2c324 <ble_uuid_u16>
    int rc;

    switch (uuid16) {
   15434:	e59f3088 	ldr	r3, [pc, #136]	; 154c4 <ble_svc_bas_access+0xa4>
{
   15438:	e59f5088 	ldr	r5, [pc, #136]	; 154c8 <ble_svc_bas_access+0xa8>
   1543c:	e08f5005 	add	r5, pc, r5
    switch (uuid16) {
   15440:	e1500003 	cmp	r0, r3
   15444:	1a00000a 	bne	15474 <ble_svc_bas_access+0x54>
    case BLE_SVC_BAS_CHR_UUID16_BATTERY_LEVEL:
        assert(ctxt->op == BLE_GATT_ACCESS_OP_READ_CHR);
   15448:	e5d43000 	ldrb	r3, [r4]
   1544c:	e3530000 	cmp	r3, #0
   15450:	0a00000f 	beq	15494 <ble_svc_bas_access+0x74>
   15454:	e59f3070 	ldr	r3, [pc, #112]	; 154cc <ble_svc_bas_access+0xac>
   15458:	e59f1070 	ldr	r1, [pc, #112]	; 154d0 <ble_svc_bas_access+0xb0>
   1545c:	e59f0070 	ldr	r0, [pc, #112]	; 154d4 <ble_svc_bas_access+0xb4>
   15460:	e08f3003 	add	r3, pc, r3
   15464:	e3a02052 	mov	r2, #82	; 0x52
   15468:	e08f1001 	add	r1, pc, r1
   1546c:	e08f0000 	add	r0, pc, r0
   15470:	ea000006 	b	15490 <ble_svc_bas_access+0x70>
        rc = os_mbuf_append(ctxt->om, &ble_svc_bas_battery_level,
                            sizeof ble_svc_bas_battery_level);
        return rc == 0 ? 0 : BLE_ATT_ERR_INSUFFICIENT_RES;

    default:
        assert(0);
   15474:	e59f305c 	ldr	r3, [pc, #92]	; 154d8 <ble_svc_bas_access+0xb8>
   15478:	e59f105c 	ldr	r1, [pc, #92]	; 154dc <ble_svc_bas_access+0xbc>
   1547c:	e59f005c 	ldr	r0, [pc, #92]	; 154e0 <ble_svc_bas_access+0xc0>
   15480:	e08f3003 	add	r3, pc, r3
   15484:	e3a02058 	mov	r2, #88	; 0x58
   15488:	e08f1001 	add	r1, pc, r1
   1548c:	e08f0000 	add	r0, pc, r0
   15490:	ebfff316 	bl	120f0 <__assert@plt>
        rc = os_mbuf_append(ctxt->om, &ble_svc_bas_battery_level,
   15494:	e59f3048 	ldr	r3, [pc, #72]	; 154e4 <ble_svc_bas_access+0xc4>
   15498:	e3a02001 	mov	r2, #1
   1549c:	e7953003 	ldr	r3, [r5, r3]
   154a0:	e5940004 	ldr	r0, [r4, #4]
   154a4:	e1a01003 	mov	r1, r3
   154a8:	e58d3004 	str	r3, [sp, #4]
   154ac:	eb006a11 	bl	2fcf8 <os_mbuf_append>
        return rc == 0 ? 0 : BLE_ATT_ERR_INSUFFICIENT_RES;
   154b0:	e3500000 	cmp	r0, #0
   154b4:	13a00011 	movne	r0, #17
   154b8:	03a00000 	moveq	r0, #0
        return BLE_ATT_ERR_UNLIKELY;
    }
}
   154bc:	e28dd00c 	add	sp, sp, #12
   154c0:	e8bd8030 	pop	{r4, r5, pc}
   154c4:	00002a19 	.word	0x00002a19
   154c8:	00042bbc 	.word	0x00042bbc
   154cc:	0002b077 	.word	0x0002b077
   154d0:	0002b093 	.word	0x0002b093
   154d4:	0002b05d 	.word	0x0002b05d
   154d8:	0002b057 	.word	0x0002b057
   154dc:	0002b073 	.word	0x0002b073
   154e0:	0003072a 	.word	0x0003072a
   154e4:	000001a8 	.word	0x000001a8

000154e8 <ble_svc_bas_battery_level_set>:
/**
 * Set the battery level, must be between 0 and 100.
 * If greater than 100, it will be silently set to 100.
 */
int
ble_svc_bas_battery_level_set(uint8_t level) {
   154e8:	e59f3044 	ldr	r3, [pc, #68]	; 15534 <ble_svc_bas_battery_level_set+0x4c>
    if (level > 100)
	level = 100;
    if (ble_svc_bas_battery_level != level) {
   154ec:	e59f2044 	ldr	r2, [pc, #68]	; 15538 <ble_svc_bas_battery_level_set+0x50>
ble_svc_bas_battery_level_set(uint8_t level) {
   154f0:	e08f3003 	add	r3, pc, r3
    if (ble_svc_bas_battery_level != level) {
   154f4:	e7933002 	ldr	r3, [r3, r2]
   154f8:	e3500064 	cmp	r0, #100	; 0x64
   154fc:	e5d32000 	ldrb	r2, [r3]
   15500:	23a00064 	movcs	r0, #100	; 0x64
   15504:	e1520000 	cmp	r2, r0
   15508:	0a000007 	beq	1552c <ble_svc_bas_battery_level_set+0x44>
ble_svc_bas_battery_level_set(uint8_t level) {
   1550c:	e92d4010 	push	{r4, lr}
	ble_svc_bas_battery_level = level;
   15510:	e5c30000 	strb	r0, [r3]
#if MYNEWT_VAL(BLE_SVC_BAS_BATTERY_LEVEL_NOTIFY_ENABLE) > 0
        ble_gatts_chr_updated(ble_svc_bas_battery_handle);
   15514:	e59f3020 	ldr	r3, [pc, #32]	; 1553c <ble_svc_bas_battery_level_set+0x54>
   15518:	e08f3003 	add	r3, pc, r3
   1551c:	e1d300b0 	ldrh	r0, [r3]
   15520:	eb002b72 	bl	202f0 <ble_gatts_chr_updated>
#endif
    }
    return 0;
}
   15524:	e3a00000 	mov	r0, #0
   15528:	e8bd8010 	pop	{r4, pc}
   1552c:	e3a00000 	mov	r0, #0
   15530:	e12fff1e 	bx	lr
   15534:	00042b08 	.word	0x00042b08
   15538:	000001a8 	.word	0x000001a8
   1553c:	00043988 	.word	0x00043988

00015540 <ble_svc_bas_init>:
/**
 * Initialize the Battery Service.
 */
void
ble_svc_bas_init(void)
{
   15540:	e92d4010 	push	{r4, lr}
    int rc;

    /* Ensure this function only gets called by sysinit. */
    SYSINIT_ASSERT_ACTIVE();

    rc = ble_gatts_count_cfg(ble_svc_bas_defs);
   15544:	e59f4068 	ldr	r4, [pc, #104]	; 155b4 <ble_svc_bas_init+0x74>
   15548:	e08f4004 	add	r4, pc, r4
   1554c:	e1a00004 	mov	r0, r4
   15550:	eb002cb6 	bl	20830 <ble_gatts_count_cfg>
    SYSINIT_PANIC_ASSERT(rc == 0);
   15554:	e3500000 	cmp	r0, #0
   15558:	0a000008 	beq	15580 <ble_svc_bas_init+0x40>
   1555c:	e59f3054 	ldr	r3, [pc, #84]	; 155b8 <ble_svc_bas_init+0x78>
   15560:	e59f1054 	ldr	r1, [pc, #84]	; 155bc <ble_svc_bas_init+0x7c>
   15564:	e59f0054 	ldr	r0, [pc, #84]	; 155c0 <ble_svc_bas_init+0x80>
   15568:	e08f3003 	add	r3, pc, r3
   1556c:	e2833013 	add	r3, r3, #19
   15570:	e3a0207b 	mov	r2, #123	; 0x7b
   15574:	e08f1001 	add	r1, pc, r1
   15578:	e08f0000 	add	r0, pc, r0
   1557c:	ea00000b 	b	155b0 <ble_svc_bas_init+0x70>

    rc = ble_gatts_add_svcs(ble_svc_bas_defs);
   15580:	e1a00004 	mov	r0, r4
   15584:	eb002c74 	bl	2075c <ble_gatts_add_svcs>
    SYSINIT_PANIC_ASSERT(rc == 0);
   15588:	e3500000 	cmp	r0, #0
   1558c:	08bd8010 	popeq	{r4, pc}
   15590:	e59f302c 	ldr	r3, [pc, #44]	; 155c4 <ble_svc_bas_init+0x84>
   15594:	e59f102c 	ldr	r1, [pc, #44]	; 155c8 <ble_svc_bas_init+0x88>
   15598:	e59f002c 	ldr	r0, [pc, #44]	; 155cc <ble_svc_bas_init+0x8c>
   1559c:	e08f3003 	add	r3, pc, r3
   155a0:	e2833013 	add	r3, r3, #19
   155a4:	e3a0207e 	mov	r2, #126	; 0x7e
   155a8:	e08f1001 	add	r1, pc, r1
   155ac:	e08f0000 	add	r0, pc, r0
   155b0:	ebfff2ce 	bl	120f0 <__assert@plt>
   155b4:	0004132c 	.word	0x0004132c
   155b8:	0002af6f 	.word	0x0002af6f
   155bc:	0002af87 	.word	0x0002af87
   155c0:	0002a5c2 	.word	0x0002a5c2
   155c4:	0002af3b 	.word	0x0002af3b
   155c8:	0002af53 	.word	0x0002af53
   155cc:	0002a58e 	.word	0x0002a58e

000155d0 <ble_svc_gap_access>:
}

static int
ble_svc_gap_access(uint16_t conn_handle, uint16_t attr_handle,
                   struct ble_gatt_access_ctxt *ctxt, void *arg)
{
   155d0:	e92d407f 	push	{r0, r1, r2, r3, r4, r5, r6, lr}
    uint16_t uuid16;
#if MYNEWT_VAL(BLE_SVC_GAP_CENTRAL_ADDRESS_RESOLUTION) >= 0
    uint8_t central_ar = MYNEWT_VAL(BLE_SVC_GAP_CENTRAL_ADDRESS_RESOLUTION);
#endif
#if PPCP_ENABLED
    uint16_t ppcp[4] = {
   155d4:	e59f41b8 	ldr	r4, [pc, #440]	; 15794 <ble_svc_gap_access+0x1c4>
   155d8:	e28d6008 	add	r6, sp, #8
   155dc:	e08f4004 	add	r4, pc, r4
{
   155e0:	e1a05002 	mov	r5, r2
    uint16_t ppcp[4] = {
   155e4:	e1a01004 	mov	r1, r4
   155e8:	e3a02008 	mov	r2, #8
   155ec:	e1a00006 	mov	r0, r6
   155f0:	ebfff282 	bl	12000 <memcpy@plt>
        htole16(MYNEWT_VAL(BLE_SVC_GAP_PPCP_SUPERVISION_TMO))
    };
#endif
    int rc;

    uuid16 = ble_uuid_u16(ctxt->chr->uuid);
   155f4:	e5953008 	ldr	r3, [r5, #8]
   155f8:	e5930000 	ldr	r0, [r3]
   155fc:	eb005b48 	bl	2c324 <ble_uuid_u16>
    assert(uuid16 != 0);
   15600:	e3500000 	cmp	r0, #0
   15604:	1a000006 	bne	15624 <ble_svc_gap_access+0x54>
   15608:	e59f1188 	ldr	r1, [pc, #392]	; 15798 <ble_svc_gap_access+0x1c8>
   1560c:	e59f0188 	ldr	r0, [pc, #392]	; 1579c <ble_svc_gap_access+0x1cc>
   15610:	e2843008 	add	r3, r4, #8
   15614:	e3a020c6 	mov	r2, #198	; 0xc6
   15618:	e08f1001 	add	r1, pc, r1
   1561c:	e08f0000 	add	r0, pc, r0
   15620:	ea00001f 	b	156a4 <ble_svc_gap_access+0xd4>

    switch (uuid16) {
   15624:	e59f3174 	ldr	r3, [pc, #372]	; 157a0 <ble_svc_gap_access+0x1d0>
   15628:	e1500003 	cmp	r0, r3
   1562c:	0a000024 	beq	156c4 <ble_svc_gap_access+0xf4>
   15630:	e2833003 	add	r3, r3, #3
   15634:	e1500003 	cmp	r0, r3
   15638:	0a000040 	beq	15740 <ble_svc_gap_access+0x170>
   1563c:	e3500c2a 	cmp	r0, #10752	; 0x2a00
   15640:	1a00004a 	bne	15770 <ble_svc_gap_access+0x1a0>
    case BLE_SVC_GAP_CHR_UUID16_DEVICE_NAME:
        if (ctxt->op == BLE_GATT_ACCESS_OP_READ_CHR) {
   15644:	e5d53000 	ldrb	r3, [r5]
   15648:	e3530000 	cmp	r3, #0
   1564c:	1a00000c 	bne	15684 <ble_svc_gap_access+0xb4>
    rc = os_mbuf_append(ctxt->om, ble_svc_gap_name, strlen(ble_svc_gap_name));
   15650:	e59f414c 	ldr	r4, [pc, #332]	; 157a4 <ble_svc_gap_access+0x1d4>
   15654:	e08f4004 	add	r4, pc, r4
   15658:	e1a00004 	mov	r0, r4
   1565c:	ebfff28b 	bl	12090 <strlen@plt>
   15660:	e1a01004 	mov	r1, r4
   15664:	e1a02800 	lsl	r2, r0, #16
   15668:	e1a02822 	lsr	r2, r2, #16
   1566c:	e5950004 	ldr	r0, [r5, #4]
   15670:	eb0069a0 	bl	2fcf8 <os_mbuf_append>
    return rc == 0 ? 0 : BLE_ATT_ERR_INSUFFICIENT_RES;
   15674:	e3500000 	cmp	r0, #0
   15678:	13a00011 	movne	r0, #17
   1567c:	03a00000 	moveq	r0, #0
   15680:	ea000041 	b	1578c <ble_svc_gap_access+0x1bc>
            rc = ble_svc_gap_device_name_read_access(ctxt);
        } else if (ctxt->op == BLE_GATT_ACCESS_OP_WRITE_CHR) {
   15684:	e3530001 	cmp	r3, #1
   15688:	1a000006 	bne	156a8 <ble_svc_gap_access+0xd8>
    assert(0);
   1568c:	e59f1114 	ldr	r1, [pc, #276]	; 157a8 <ble_svc_gap_access+0x1d8>
   15690:	e59f0114 	ldr	r0, [pc, #276]	; 157ac <ble_svc_gap_access+0x1dc>
   15694:	e284301b 	add	r3, r4, #27
   15698:	e3a02070 	mov	r2, #112	; 0x70
   1569c:	e08f1001 	add	r1, pc, r1
   156a0:	e08f0000 	add	r0, pc, r0
   156a4:	ebfff291 	bl	120f0 <__assert@plt>
            rc = ble_svc_gap_device_name_write_access(ctxt);
        } else {
            assert(0);
   156a8:	e59f1100 	ldr	r1, [pc, #256]	; 157b0 <ble_svc_gap_access+0x1e0>
   156ac:	e59f0100 	ldr	r0, [pc, #256]	; 157b4 <ble_svc_gap_access+0x1e4>
   156b0:	e2843008 	add	r3, r4, #8
   156b4:	e3a020cf 	mov	r2, #207	; 0xcf
   156b8:	e08f1001 	add	r1, pc, r1
   156bc:	e08f0000 	add	r0, pc, r0
   156c0:	eafffff7 	b	156a4 <ble_svc_gap_access+0xd4>
        }
        return rc;

    case BLE_SVC_GAP_CHR_UUID16_APPEARANCE:
        if (ctxt->op == BLE_GATT_ACCESS_OP_READ_CHR) {
   156c4:	e5d53000 	ldrb	r3, [r5]
   156c8:	e3530000 	cmp	r3, #0
   156cc:	1a00000b 	bne	15700 <ble_svc_gap_access+0x130>
    uint16_t appearance = htole16(ble_svc_gap_appearance);
   156d0:	e59f30e0 	ldr	r3, [pc, #224]	; 157b8 <ble_svc_gap_access+0x1e8>
   156d4:	e28d1010 	add	r1, sp, #16
   156d8:	e08f3003 	add	r3, pc, r3
   156dc:	e1d330b0 	ldrh	r3, [r3]
   156e0:	e5950004 	ldr	r0, [r5, #4]
   156e4:	e16130ba 	strh	r3, [r1, #-10]!
    rc = os_mbuf_append(ctxt->om, &appearance, sizeof(appearance));
   156e8:	e3a02002 	mov	r2, #2
   156ec:	eb006981 	bl	2fcf8 <os_mbuf_append>
    return rc == 0 ? 0 : BLE_ATT_ERR_INSUFFICIENT_RES;
   156f0:	e3500000 	cmp	r0, #0
   156f4:	13a00011 	movne	r0, #17
   156f8:	03a00000 	moveq	r0, #0
   156fc:	ea000022 	b	1578c <ble_svc_gap_access+0x1bc>
            rc = ble_svc_gap_appearance_read_access(ctxt);
        } else if (ctxt->op == BLE_GATT_ACCESS_OP_WRITE_CHR) {
   15700:	e3530001 	cmp	r3, #1
   15704:	1a000006 	bne	15724 <ble_svc_gap_access+0x154>
    assert(0);
   15708:	e59f10ac 	ldr	r1, [pc, #172]	; 157bc <ble_svc_gap_access+0x1ec>
   1570c:	e59f00ac 	ldr	r0, [pc, #172]	; 157c0 <ble_svc_gap_access+0x1f0>
   15710:	e2843040 	add	r3, r4, #64	; 0x40
   15714:	e3a02099 	mov	r2, #153	; 0x99
   15718:	e08f1001 	add	r1, pc, r1
   1571c:	e08f0000 	add	r0, pc, r0
   15720:	eaffffdf 	b	156a4 <ble_svc_gap_access+0xd4>
            rc = ble_svc_gap_appearance_write_access(ctxt);
        } else {
            assert(0);
   15724:	e59f1098 	ldr	r1, [pc, #152]	; 157c4 <ble_svc_gap_access+0x1f4>
   15728:	e59f0098 	ldr	r0, [pc, #152]	; 157c8 <ble_svc_gap_access+0x1f8>
   1572c:	e2843008 	add	r3, r4, #8
   15730:	e3a020d9 	mov	r2, #217	; 0xd9
   15734:	e08f1001 	add	r1, pc, r1
   15738:	e08f0000 	add	r0, pc, r0
   1573c:	eaffffd8 	b	156a4 <ble_svc_gap_access+0xd4>
        }
        return rc;

#if PPCP_ENABLED
    case BLE_SVC_GAP_CHR_UUID16_PERIPH_PREF_CONN_PARAMS:
        assert(ctxt->op == BLE_GATT_ACCESS_OP_READ_CHR);
   15740:	e5d53000 	ldrb	r3, [r5]
   15744:	e3530000 	cmp	r3, #0
        rc = os_mbuf_append(ctxt->om, &ppcp, sizeof(ppcp));
   15748:	03a02008 	moveq	r2, #8
   1574c:	01a01006 	moveq	r1, r6
        assert(ctxt->op == BLE_GATT_ACCESS_OP_READ_CHR);
   15750:	0affffc5 	beq	1566c <ble_svc_gap_access+0x9c>
   15754:	e59f1070 	ldr	r1, [pc, #112]	; 157cc <ble_svc_gap_access+0x1fc>
   15758:	e59f0070 	ldr	r0, [pc, #112]	; 157d0 <ble_svc_gap_access+0x200>
   1575c:	e2843008 	add	r3, r4, #8
   15760:	e3a020df 	mov	r2, #223	; 0xdf
   15764:	e08f1001 	add	r1, pc, r1
   15768:	e08f0000 	add	r0, pc, r0
   1576c:	eaffffcc 	b	156a4 <ble_svc_gap_access+0xd4>
        rc = os_mbuf_append(ctxt->om, &central_ar, sizeof(central_ar));
        return rc == 0 ? 0 : BLE_ATT_ERR_INSUFFICIENT_RES;
#endif

    default:
        assert(0);
   15770:	e59f105c 	ldr	r1, [pc, #92]	; 157d4 <ble_svc_gap_access+0x204>
   15774:	e59f005c 	ldr	r0, [pc, #92]	; 157d8 <ble_svc_gap_access+0x208>
   15778:	e2843008 	add	r3, r4, #8
   1577c:	e3a020ec 	mov	r2, #236	; 0xec
   15780:	e08f1001 	add	r1, pc, r1
   15784:	e08f0000 	add	r0, pc, r0
   15788:	eaffffc5 	b	156a4 <ble_svc_gap_access+0xd4>
        return BLE_ATT_ERR_UNLIKELY;
    }
}
   1578c:	e28dd010 	add	sp, sp, #16
   15790:	e8bd8070 	pop	{r4, r5, r6, pc}
   15794:	0002afc0 	.word	0x0002afc0
   15798:	0002aff9 	.word	0x0002aff9
   1579c:	0002aea1 	.word	0x0002aea1
   157a0:	00002a01 	.word	0x00002a01
   157a4:	00042dfc 	.word	0x00042dfc
   157a8:	0002af75 	.word	0x0002af75
   157ac:	00030516 	.word	0x00030516
   157b0:	0002af59 	.word	0x0002af59
   157b4:	000304fa 	.word	0x000304fa
   157b8:	000437ca 	.word	0x000437ca
   157bc:	0002aef9 	.word	0x0002aef9
   157c0:	0003049a 	.word	0x0003049a
   157c4:	0002aedd 	.word	0x0002aedd
   157c8:	0003047e 	.word	0x0003047e
   157cc:	0002aead 	.word	0x0002aead
   157d0:	0002ad61 	.word	0x0002ad61
   157d4:	0002ae91 	.word	0x0002ae91
   157d8:	00030432 	.word	0x00030432

000157dc <ble_svc_gap_device_name>:

const char *
ble_svc_gap_device_name(void)
{
    return ble_svc_gap_name;
}
   157dc:	e59f0004 	ldr	r0, [pc, #4]	; 157e8 <ble_svc_gap_device_name+0xc>
   157e0:	e08f0000 	add	r0, pc, r0
   157e4:	e12fff1e 	bx	lr
   157e8:	00042c70 	.word	0x00042c70

000157ec <ble_svc_gap_device_name_set>:

int
ble_svc_gap_device_name_set(const char *name)
{
   157ec:	e92d4070 	push	{r4, r5, r6, lr}
   157f0:	e1a05000 	mov	r5, r0
    int len;

    len = strlen(name);
   157f4:	ebfff225 	bl	12090 <strlen@plt>
    if (len > BLE_SVC_GAP_NAME_MAX_LEN) {
   157f8:	e350001f 	cmp	r0, #31
   157fc:	ca00000a 	bgt	1582c <ble_svc_gap_device_name_set+0x40>
        return BLE_HS_EINVAL;
    }

    memcpy(ble_svc_gap_name, name, len);
   15800:	e59f302c 	ldr	r3, [pc, #44]	; 15834 <ble_svc_gap_device_name_set+0x48>
   15804:	e1a04000 	mov	r4, r0
   15808:	e08f3003 	add	r3, pc, r3
   1580c:	e1a02000 	mov	r2, r0
   15810:	e1a01005 	mov	r1, r5
   15814:	e1a00003 	mov	r0, r3
   15818:	ebfff1f8 	bl	12000 <memcpy@plt>
   1581c:	e1a03000 	mov	r3, r0
    ble_svc_gap_name[len] = '\0';
   15820:	e3a00000 	mov	r0, #0
   15824:	e7c30004 	strb	r0, [r3, r4]

    return 0;
   15828:	e8bd8070 	pop	{r4, r5, r6, pc}
        return BLE_HS_EINVAL;
   1582c:	e3a00003 	mov	r0, #3
}
   15830:	e8bd8070 	pop	{r4, r5, r6, pc}
   15834:	00042c48 	.word	0x00042c48

00015838 <ble_svc_gap_device_appearance>:

uint16_t
ble_svc_gap_device_appearance(void)
{
  return ble_svc_gap_appearance;
}
   15838:	e59f3008 	ldr	r3, [pc, #8]	; 15848 <ble_svc_gap_device_appearance+0x10>
   1583c:	e08f3003 	add	r3, pc, r3
   15840:	e1d300b0 	ldrh	r0, [r3]
   15844:	e12fff1e 	bx	lr
   15848:	00043666 	.word	0x00043666

0001584c <ble_svc_gap_device_appearance_set>:

int
ble_svc_gap_device_appearance_set(uint16_t appearance)
{
    ble_svc_gap_appearance = appearance;
   1584c:	e59f300c 	ldr	r3, [pc, #12]	; 15860 <ble_svc_gap_device_appearance_set+0x14>
   15850:	e08f3003 	add	r3, pc, r3
   15854:	e1c300b0 	strh	r0, [r3]

    return 0;
}
   15858:	e3a00000 	mov	r0, #0
   1585c:	e12fff1e 	bx	lr
   15860:	00043652 	.word	0x00043652

00015864 <ble_svc_gap_set_chr_changed_cb>:

void
ble_svc_gap_set_chr_changed_cb(ble_svc_gap_chr_changed_fn *cb)
{
   15864:	e12fff1e 	bx	lr

00015868 <ble_svc_gap_init>:
    ble_svc_gap_chr_changed_cb_fn = cb;
}

void
ble_svc_gap_init(void)
{
   15868:	e92d4010 	push	{r4, lr}
    int rc;

    /* Ensure this function only gets called by sysinit. */
    SYSINIT_ASSERT_ACTIVE();

    rc = ble_gatts_count_cfg(ble_svc_gap_defs);
   1586c:	e59f4068 	ldr	r4, [pc, #104]	; 158dc <ble_svc_gap_init+0x74>
   15870:	e08f4004 	add	r4, pc, r4
   15874:	e1a00004 	mov	r0, r4
   15878:	eb002bec 	bl	20830 <ble_gatts_count_cfg>
    SYSINIT_PANIC_ASSERT(rc == 0);
   1587c:	e3500000 	cmp	r0, #0
   15880:	0a000008 	beq	158a8 <ble_svc_gap_init+0x40>
   15884:	e59f3054 	ldr	r3, [pc, #84]	; 158e0 <ble_svc_gap_init+0x78>
   15888:	e59f1054 	ldr	r1, [pc, #84]	; 158e4 <ble_svc_gap_init+0x7c>
   1588c:	e59f0054 	ldr	r0, [pc, #84]	; 158e8 <ble_svc_gap_init+0x80>
   15890:	e08f3003 	add	r3, pc, r3
   15894:	e2833064 	add	r3, r3, #100	; 0x64
   15898:	e3a02f49 	mov	r2, #292	; 0x124
   1589c:	e08f1001 	add	r1, pc, r1
   158a0:	e08f0000 	add	r0, pc, r0
   158a4:	ea00000b 	b	158d8 <ble_svc_gap_init+0x70>

    rc = ble_gatts_add_svcs(ble_svc_gap_defs);
   158a8:	e1a00004 	mov	r0, r4
   158ac:	eb002baa 	bl	2075c <ble_gatts_add_svcs>
    SYSINIT_PANIC_ASSERT(rc == 0);
   158b0:	e3500000 	cmp	r0, #0
   158b4:	08bd8010 	popeq	{r4, pc}
   158b8:	e59f302c 	ldr	r3, [pc, #44]	; 158ec <ble_svc_gap_init+0x84>
   158bc:	e59f102c 	ldr	r1, [pc, #44]	; 158f0 <ble_svc_gap_init+0x88>
   158c0:	e59f002c 	ldr	r0, [pc, #44]	; 158f4 <ble_svc_gap_init+0x8c>
   158c4:	e59f202c 	ldr	r2, [pc, #44]	; 158f8 <ble_svc_gap_init+0x90>
   158c8:	e08f3003 	add	r3, pc, r3
   158cc:	e2833064 	add	r3, r3, #100	; 0x64
   158d0:	e08f1001 	add	r1, pc, r1
   158d4:	e08f0000 	add	r0, pc, r0
   158d8:	ebfff204 	bl	120f0 <__assert@plt>
   158dc:	00041024 	.word	0x00041024
   158e0:	0002ad0c 	.word	0x0002ad0c
   158e4:	0002ad75 	.word	0x0002ad75
   158e8:	0002a29a 	.word	0x0002a29a
   158ec:	0002acd4 	.word	0x0002acd4
   158f0:	0002ad41 	.word	0x0002ad41
   158f4:	0002a266 	.word	0x0002a266
   158f8:	00000127 	.word	0x00000127

000158fc <ble_svc_gatt_access>:
};

static int
ble_svc_gatt_access(uint16_t conn_handle, uint16_t attr_handle,
                    struct ble_gatt_access_ctxt *ctxt, void *arg)
{
   158fc:	e92d4070 	push	{r4, r5, r6, lr}
     * access callback gets called by the stack when it needs to read the
     * characteristic value to populate the outgoing indication command.
     * Therefore, this callback should only get called during an attempt to
     * read the characteristic.
     */
    assert(ctxt->op == BLE_GATT_ACCESS_OP_READ_CHR);
   15900:	e5d24000 	ldrb	r4, [r2]
   15904:	e3540000 	cmp	r4, #0
   15908:	0a000007 	beq	1592c <ble_svc_gatt_access+0x30>
   1590c:	e59f308c 	ldr	r3, [pc, #140]	; 159a0 <ble_svc_gatt_access+0xa4>
   15910:	e59f108c 	ldr	r1, [pc, #140]	; 159a4 <ble_svc_gatt_access+0xa8>
   15914:	e59f008c 	ldr	r0, [pc, #140]	; 159a8 <ble_svc_gatt_access+0xac>
   15918:	e08f3003 	add	r3, pc, r3
   1591c:	e3a02042 	mov	r2, #66	; 0x42
   15920:	e08f1001 	add	r1, pc, r1
   15924:	e08f0000 	add	r0, pc, r0
   15928:	ea00000b 	b	1595c <ble_svc_gatt_access+0x60>
    assert(ctxt->chr == &ble_svc_gatt_defs[0].characteristics[0]);
   1592c:	e59f3078 	ldr	r3, [pc, #120]	; 159ac <ble_svc_gatt_access+0xb0>
   15930:	e5921008 	ldr	r1, [r2, #8]
   15934:	e08f3003 	add	r3, pc, r3
   15938:	e1510003 	cmp	r1, r3
   1593c:	0a000007 	beq	15960 <ble_svc_gatt_access+0x64>
   15940:	e59f3068 	ldr	r3, [pc, #104]	; 159b0 <ble_svc_gatt_access+0xb4>
   15944:	e59f1068 	ldr	r1, [pc, #104]	; 159b4 <ble_svc_gatt_access+0xb8>
   15948:	e59f0068 	ldr	r0, [pc, #104]	; 159b8 <ble_svc_gatt_access+0xbc>
   1594c:	e08f3003 	add	r3, pc, r3
   15950:	e3a02043 	mov	r2, #67	; 0x43
   15954:	e08f1001 	add	r1, pc, r1
   15958:	e08f0000 	add	r0, pc, r0
   1595c:	ebfff1e3 	bl	120f0 <__assert@plt>

    u8p = os_mbuf_extend(ctxt->om, 4);
   15960:	e3a01004 	mov	r1, #4
   15964:	e5920004 	ldr	r0, [r2, #4]
   15968:	eb006aff 	bl	3056c <os_mbuf_extend>
    if (u8p == NULL) {
   1596c:	e2506000 	subs	r6, r0, #0
   15970:	0a000008 	beq	15998 <ble_svc_gatt_access+0x9c>
        return BLE_HS_ENOMEM;
    }

    put_le16(u8p + 0, ble_svc_gatt_start_handle);
   15974:	e59f5040 	ldr	r5, [pc, #64]	; 159bc <ble_svc_gatt_access+0xc0>
   15978:	e08f5005 	add	r5, pc, r5
   1597c:	e1d510b0 	ldrh	r1, [r5]
   15980:	eb006612 	bl	2f1d0 <put_le16>
    put_le16(u8p + 2, ble_svc_gatt_end_handle);
   15984:	e2860002 	add	r0, r6, #2
   15988:	e1d510b2 	ldrh	r1, [r5, #2]
   1598c:	eb00660f 	bl	2f1d0 <put_le16>

    return 0;
   15990:	e1a00004 	mov	r0, r4
   15994:	e8bd8070 	pop	{r4, r5, r6, pc}
        return BLE_HS_ENOMEM;
   15998:	e3a00006 	mov	r0, #6
}
   1599c:	e8bd8070 	pop	{r4, r5, r6, pc}
   159a0:	0002ad99 	.word	0x0002ad99
   159a4:	0002adb7 	.word	0x0002adb7
   159a8:	0002aba5 	.word	0x0002aba5
   159ac:	00042bb4 	.word	0x00042bb4
   159b0:	0002ad65 	.word	0x0002ad65
   159b4:	0002ad83 	.word	0x0002ad83
   159b8:	0002ae21 	.word	0x0002ae21
   159bc:	0004352c 	.word	0x0004352c

000159c0 <ble_svc_gatt_changed>:
 * @param end_handle            The end of the affected handle range.
 */
void
ble_svc_gatt_changed(uint16_t start_handle, uint16_t end_handle)
{
    ble_svc_gatt_start_handle = start_handle;
   159c0:	e59f2020 	ldr	r2, [pc, #32]	; 159e8 <ble_svc_gatt_changed+0x28>
{
   159c4:	e59f3020 	ldr	r3, [pc, #32]	; 159ec <ble_svc_gatt_changed+0x2c>
    ble_svc_gatt_start_handle = start_handle;
   159c8:	e08f2002 	add	r2, pc, r2
   159cc:	e1c200b0 	strh	r0, [r2]
    ble_svc_gatt_end_handle = end_handle;
   159d0:	e1c210b2 	strh	r1, [r2, #2]
    ble_gatts_chr_updated(ble_svc_gatt_changed_val_handle);
   159d4:	e59f2014 	ldr	r2, [pc, #20]	; 159f0 <ble_svc_gatt_changed+0x30>
{
   159d8:	e08f3003 	add	r3, pc, r3
    ble_gatts_chr_updated(ble_svc_gatt_changed_val_handle);
   159dc:	e7933002 	ldr	r3, [r3, r2]
   159e0:	e1d300b0 	ldrh	r0, [r3]
   159e4:	ea002a41 	b	202f0 <ble_gatts_chr_updated>
   159e8:	000434dc 	.word	0x000434dc
   159ec:	00042620 	.word	0x00042620
   159f0:	00000184 	.word	0x00000184

000159f4 <ble_svc_gatt_init>:
}

void
ble_svc_gatt_init(void)
{
   159f4:	e92d4010 	push	{r4, lr}
    int rc;

    /* Ensure this function only gets called by sysinit. */
    SYSINIT_ASSERT_ACTIVE();

    rc = ble_gatts_count_cfg(ble_svc_gatt_defs);
   159f8:	e59f4068 	ldr	r4, [pc, #104]	; 15a68 <ble_svc_gatt_init+0x74>
   159fc:	e08f4004 	add	r4, pc, r4
   15a00:	e1a00004 	mov	r0, r4
   15a04:	eb002b89 	bl	20830 <ble_gatts_count_cfg>
    SYSINIT_PANIC_ASSERT(rc == 0);
   15a08:	e3500000 	cmp	r0, #0
   15a0c:	0a000008 	beq	15a34 <ble_svc_gatt_init+0x40>
   15a10:	e59f3054 	ldr	r3, [pc, #84]	; 15a6c <ble_svc_gatt_init+0x78>
   15a14:	e59f1054 	ldr	r1, [pc, #84]	; 15a70 <ble_svc_gatt_init+0x7c>
   15a18:	e59f0054 	ldr	r0, [pc, #84]	; 15a74 <ble_svc_gatt_init+0x80>
   15a1c:	e08f3003 	add	r3, pc, r3
   15a20:	e2833014 	add	r3, r3, #20
   15a24:	e3a02068 	mov	r2, #104	; 0x68
   15a28:	e08f1001 	add	r1, pc, r1
   15a2c:	e08f0000 	add	r0, pc, r0
   15a30:	ea00000b 	b	15a64 <ble_svc_gatt_init+0x70>

    rc = ble_gatts_add_svcs(ble_svc_gatt_defs);
   15a34:	e1a00004 	mov	r0, r4
   15a38:	eb002b47 	bl	2075c <ble_gatts_add_svcs>
    SYSINIT_PANIC_ASSERT(rc == 0);
   15a3c:	e3500000 	cmp	r0, #0
   15a40:	08bd8010 	popeq	{r4, pc}
   15a44:	e59f302c 	ldr	r3, [pc, #44]	; 15a78 <ble_svc_gatt_init+0x84>
   15a48:	e59f102c 	ldr	r1, [pc, #44]	; 15a7c <ble_svc_gatt_init+0x88>
   15a4c:	e59f002c 	ldr	r0, [pc, #44]	; 15a80 <ble_svc_gatt_init+0x8c>
   15a50:	e08f3003 	add	r3, pc, r3
   15a54:	e2833014 	add	r3, r3, #20
   15a58:	e3a0206b 	mov	r2, #107	; 0x6b
   15a5c:	e08f1001 	add	r1, pc, r1
   15a60:	e08f0000 	add	r0, pc, r0
   15a64:	ebfff1a1 	bl	120f0 <__assert@plt>
   15a68:	00040eb8 	.word	0x00040eb8
   15a6c:	0002ac95 	.word	0x0002ac95
   15a70:	0002acaf 	.word	0x0002acaf
   15a74:	0002a10e 	.word	0x0002a10e
   15a78:	0002ac61 	.word	0x0002ac61
   15a7c:	0002ac7b 	.word	0x0002ac7b
   15a80:	0002a0da 	.word	0x0002a0da

00015a84 <ble_svc_ias_access>:
ble_svc_ias_access(uint16_t conn_handle, uint16_t attr_handle,
                   struct ble_gatt_access_ctxt *ctxt, void *arg)
{
    int rc;

    assert(ctxt->chr == &ble_svc_ias_defs[0].characteristics[0]);
   15a84:	e59f30b4 	ldr	r3, [pc, #180]	; 15b40 <ble_svc_ias_access+0xbc>
{
   15a88:	e92d4010 	push	{r4, lr}
    assert(ctxt->chr == &ble_svc_ias_defs[0].characteristics[0]);
   15a8c:	e5921008 	ldr	r1, [r2, #8]
   15a90:	e08f3003 	add	r3, pc, r3
   15a94:	e1510003 	cmp	r1, r3
   15a98:	0a000007 	beq	15abc <ble_svc_ias_access+0x38>
   15a9c:	e59f30a0 	ldr	r3, [pc, #160]	; 15b44 <ble_svc_ias_access+0xc0>
   15aa0:	e59f10a0 	ldr	r1, [pc, #160]	; 15b48 <ble_svc_ias_access+0xc4>
   15aa4:	e59f00a0 	ldr	r0, [pc, #160]	; 15b4c <ble_svc_ias_access+0xc8>
   15aa8:	e08f3003 	add	r3, pc, r3
   15aac:	e3a02062 	mov	r2, #98	; 0x62
   15ab0:	e08f1001 	add	r1, pc, r1
   15ab4:	e08f0000 	add	r0, pc, r0
   15ab8:	ea00001d 	b	15b34 <ble_svc_ias_access+0xb0>

    switch (ctxt->op) {
   15abc:	e5d23000 	ldrb	r3, [r2]
   15ac0:	e3530001 	cmp	r3, #1
   15ac4:	1a000013 	bne	15b18 <ble_svc_ias_access+0x94>
    case BLE_GATT_ACCESS_OP_WRITE_CHR:
        rc = ble_svc_ias_chr_write(ctxt->om,
   15ac8:	e5920004 	ldr	r0, [r2, #4]
    if (om_len < min_len || om_len > max_len) {
   15acc:	e1d021b0 	ldrh	r2, [r0, #16]
   15ad0:	e3520001 	cmp	r2, #1
        return BLE_ATT_ERR_INVALID_ATTR_VALUE_LEN;
   15ad4:	13a0400d 	movne	r4, #13
    if (om_len < min_len || om_len > max_len) {
   15ad8:	1a000006 	bne	15af8 <ble_svc_ias_access+0x74>
    rc = ble_hs_mbuf_to_flat(om, dst, max_len, len);
   15adc:	e59f106c 	ldr	r1, [pc, #108]	; 15b50 <ble_svc_ias_access+0xcc>
   15ae0:	e3a03000 	mov	r3, #0
   15ae4:	e08f1001 	add	r1, pc, r1
   15ae8:	eb003e12 	bl	25338 <ble_hs_mbuf_to_flat>
    return 0;
   15aec:	e3500000 	cmp	r0, #0
   15af0:	13a0400e 	movne	r4, #14
   15af4:	03a04000 	moveq	r4, #0
                                   sizeof ble_svc_ias_alert_level,
                                   sizeof ble_svc_ias_alert_level,
                                   &ble_svc_ias_alert_level, NULL);
	/* Call the IAS event function */
	if (ble_svc_ias_cb_fn) {
   15af8:	e59f2054 	ldr	r2, [pc, #84]	; 15b54 <ble_svc_ias_access+0xd0>
   15afc:	e08f2002 	add	r2, pc, r2
   15b00:	e5923004 	ldr	r3, [r2, #4]
   15b04:	e3530000 	cmp	r3, #0
   15b08:	0a00000a 	beq	15b38 <ble_svc_ias_access+0xb4>
		ble_svc_ias_cb_fn(ble_svc_ias_alert_level);
   15b0c:	e5d20000 	ldrb	r0, [r2]
   15b10:	e12fff33 	blx	r3
   15b14:	ea000007 	b	15b38 <ble_svc_ias_access+0xb4>
	}
        return rc;

    default:
        assert(0);
   15b18:	e59f3038 	ldr	r3, [pc, #56]	; 15b58 <ble_svc_ias_access+0xd4>
   15b1c:	e59f1038 	ldr	r1, [pc, #56]	; 15b5c <ble_svc_ias_access+0xd8>
   15b20:	e59f0038 	ldr	r0, [pc, #56]	; 15b60 <ble_svc_ias_access+0xdc>
   15b24:	e08f3003 	add	r3, pc, r3
   15b28:	e3a02071 	mov	r2, #113	; 0x71
   15b2c:	e08f1001 	add	r1, pc, r1
   15b30:	e08f0000 	add	r0, pc, r0
   15b34:	ebfff16d 	bl	120f0 <__assert@plt>
        return BLE_ATT_ERR_UNLIKELY;
    }

    return 0;
}
   15b38:	e1a00004 	mov	r0, r4
   15b3c:	e8bd8010 	pop	{r4, pc}
   15b40:	00042a90 	.word	0x00042a90
   15b44:	0002ad07 	.word	0x0002ad07
   15b48:	0002ad23 	.word	0x0002ad23
   15b4c:	0002adbf 	.word	0x0002adbf
   15b50:	000433c4 	.word	0x000433c4
   15b54:	000433ac 	.word	0x000433ac
   15b58:	0002ac8b 	.word	0x0002ac8b
   15b5c:	0002aca7 	.word	0x0002aca7
   15b60:	00030086 	.word	0x00030086

00015b64 <ble_svc_ias_set_cb>:
 *                                      the client signals an alert.
 */
void
ble_svc_ias_set_cb(ble_svc_ias_event_fn *cb)
{
    ble_svc_ias_cb_fn = cb;
   15b64:	e59f3008 	ldr	r3, [pc, #8]	; 15b74 <ble_svc_ias_set_cb+0x10>
   15b68:	e08f3003 	add	r3, pc, r3
   15b6c:	e5830004 	str	r0, [r3, #4]
   15b70:	e12fff1e 	bx	lr
   15b74:	00043340 	.word	0x00043340

00015b78 <ble_svc_ias_init>:
/**
 * Initialize the IAS package.
 */
void
ble_svc_ias_init(void)
{
   15b78:	e92d4010 	push	{r4, lr}
    int rc;

    /* Ensure this function only gets called by sysinit. */
    SYSINIT_ASSERT_ACTIVE();

    rc = ble_gatts_count_cfg(ble_svc_ias_defs);
   15b7c:	e59f4068 	ldr	r4, [pc, #104]	; 15bec <ble_svc_ias_init+0x74>
   15b80:	e08f4004 	add	r4, pc, r4
   15b84:	e1a00004 	mov	r0, r4
   15b88:	eb002b28 	bl	20830 <ble_gatts_count_cfg>
    SYSINIT_PANIC_ASSERT(rc == 0);
   15b8c:	e3500000 	cmp	r0, #0
   15b90:	0a000008 	beq	15bb8 <ble_svc_ias_init+0x40>
   15b94:	e59f3054 	ldr	r3, [pc, #84]	; 15bf0 <ble_svc_ias_init+0x78>
   15b98:	e59f1054 	ldr	r1, [pc, #84]	; 15bf4 <ble_svc_ias_init+0x7c>
   15b9c:	e59f0054 	ldr	r0, [pc, #84]	; 15bf8 <ble_svc_ias_init+0x80>
   15ba0:	e08f3003 	add	r3, pc, r3
   15ba4:	e2833013 	add	r3, r3, #19
   15ba8:	e3a02091 	mov	r2, #145	; 0x91
   15bac:	e08f1001 	add	r1, pc, r1
   15bb0:	e08f0000 	add	r0, pc, r0
   15bb4:	ea00000b 	b	15be8 <ble_svc_ias_init+0x70>

    rc = ble_gatts_add_svcs(ble_svc_ias_defs);
   15bb8:	e1a00004 	mov	r0, r4
   15bbc:	eb002ae6 	bl	2075c <ble_gatts_add_svcs>
    SYSINIT_PANIC_ASSERT(rc == 0);
   15bc0:	e3500000 	cmp	r0, #0
   15bc4:	08bd8010 	popeq	{r4, pc}
   15bc8:	e59f302c 	ldr	r3, [pc, #44]	; 15bfc <ble_svc_ias_init+0x84>
   15bcc:	e59f102c 	ldr	r1, [pc, #44]	; 15c00 <ble_svc_ias_init+0x88>
   15bd0:	e59f002c 	ldr	r0, [pc, #44]	; 15c04 <ble_svc_ias_init+0x8c>
   15bd4:	e08f3003 	add	r3, pc, r3
   15bd8:	e2833013 	add	r3, r3, #19
   15bdc:	e3a02094 	mov	r2, #148	; 0x94
   15be0:	e08f1001 	add	r1, pc, r1
   15be4:	e08f0000 	add	r0, pc, r0
   15be8:	ebfff140 	bl	120f0 <__assert@plt>
   15bec:	00040d54 	.word	0x00040d54
   15bf0:	0002ac0f 	.word	0x0002ac0f
   15bf4:	0002ac27 	.word	0x0002ac27
   15bf8:	00029f8a 	.word	0x00029f8a
   15bfc:	0002abdb 	.word	0x0002abdb
   15c00:	0002abf3 	.word	0x0002abf3
   15c04:	00029f56 	.word	0x00029f56

00015c08 <ble_svc_lls_access>:
 * characteristic.
 */
static int
ble_svc_lls_access(uint16_t conn_handle, uint16_t attr_handle,
                   struct ble_gatt_access_ctxt *ctxt, void *arg)
{
   15c08:	e92d4010 	push	{r4, lr}
    int rc;

    assert(ctxt->chr == &ble_svc_lls_defs[0].characteristics[0]);
   15c0c:	e5921008 	ldr	r1, [r2, #8]
{
   15c10:	e1a03002 	mov	r3, r2
    assert(ctxt->chr == &ble_svc_lls_defs[0].characteristics[0]);
   15c14:	e59f20c4 	ldr	r2, [pc, #196]	; 15ce0 <ble_svc_lls_access+0xd8>
   15c18:	e08f2002 	add	r2, pc, r2
   15c1c:	e1510002 	cmp	r1, r2
   15c20:	0a000007 	beq	15c44 <ble_svc_lls_access+0x3c>
   15c24:	e59f30b8 	ldr	r3, [pc, #184]	; 15ce4 <ble_svc_lls_access+0xdc>
   15c28:	e59f10b8 	ldr	r1, [pc, #184]	; 15ce8 <ble_svc_lls_access+0xe0>
   15c2c:	e59f00b8 	ldr	r0, [pc, #184]	; 15cec <ble_svc_lls_access+0xe4>
   15c30:	e08f3003 	add	r3, pc, r3
   15c34:	e3a02062 	mov	r2, #98	; 0x62
   15c38:	e08f1001 	add	r1, pc, r1
   15c3c:	e08f0000 	add	r0, pc, r0
   15c40:	ea000021 	b	15ccc <ble_svc_lls_access+0xc4>
    switch (ctxt->op) {
   15c44:	e5d32000 	ldrb	r2, [r3]
   15c48:	e3520000 	cmp	r2, #0
   15c4c:	0a000002 	beq	15c5c <ble_svc_lls_access+0x54>
   15c50:	e3520001 	cmp	r2, #1
   15c54:	0a000009 	beq	15c80 <ble_svc_lls_access+0x78>
   15c58:	ea000014 	b	15cb0 <ble_svc_lls_access+0xa8>
    case BLE_GATT_ACCESS_OP_READ_CHR:
        rc = os_mbuf_append(ctxt->om, &ble_svc_lls_alert_level,
   15c5c:	e59f108c 	ldr	r1, [pc, #140]	; 15cf0 <ble_svc_lls_access+0xe8>
   15c60:	e3a02001 	mov	r2, #1
   15c64:	e08f1001 	add	r1, pc, r1
   15c68:	e5930004 	ldr	r0, [r3, #4]
   15c6c:	eb006821 	bl	2fcf8 <os_mbuf_append>
                            sizeof ble_svc_lls_alert_level);
        return rc == 0 ? 0 : BLE_ATT_ERR_INSUFFICIENT_RES;
   15c70:	e3500000 	cmp	r0, #0
   15c74:	0a00000b 	beq	15ca8 <ble_svc_lls_access+0xa0>
   15c78:	e3a00011 	mov	r0, #17
   15c7c:	e8bd8010 	pop	{r4, pc}

    case BLE_GATT_ACCESS_OP_WRITE_CHR:
        rc = ble_svc_lls_chr_write(ctxt->om,
   15c80:	e5930004 	ldr	r0, [r3, #4]
    if (om_len < min_len || om_len > max_len) {
   15c84:	e1d021b0 	ldrh	r2, [r0, #16]
   15c88:	e3520001 	cmp	r2, #1
   15c8c:	1a00000f 	bne	15cd0 <ble_svc_lls_access+0xc8>
    rc = ble_hs_mbuf_to_flat(om, dst, max_len, len);
   15c90:	e59f105c 	ldr	r1, [pc, #92]	; 15cf4 <ble_svc_lls_access+0xec>
   15c94:	e3a03000 	mov	r3, #0
   15c98:	e08f1001 	add	r1, pc, r1
   15c9c:	eb003da5 	bl	25338 <ble_hs_mbuf_to_flat>
    if (rc != 0) {
   15ca0:	e3500000 	cmp	r0, #0
   15ca4:	1a00000b 	bne	15cd8 <ble_svc_lls_access+0xd0>
    return 0;
   15ca8:	e3a00000 	mov	r0, #0
   15cac:	e8bd8010 	pop	{r4, pc}
                                   sizeof ble_svc_lls_alert_level,
                                   &ble_svc_lls_alert_level, NULL);
        return rc;

    default:
        assert(0);
   15cb0:	e59f3040 	ldr	r3, [pc, #64]	; 15cf8 <ble_svc_lls_access+0xf0>
   15cb4:	e59f1040 	ldr	r1, [pc, #64]	; 15cfc <ble_svc_lls_access+0xf4>
   15cb8:	e59f0040 	ldr	r0, [pc, #64]	; 15d00 <ble_svc_lls_access+0xf8>
   15cbc:	e08f3003 	add	r3, pc, r3
   15cc0:	e3a02071 	mov	r2, #113	; 0x71
   15cc4:	e08f1001 	add	r1, pc, r1
   15cc8:	e08f0000 	add	r0, pc, r0
   15ccc:	ebfff107 	bl	120f0 <__assert@plt>
        return BLE_ATT_ERR_INVALID_ATTR_VALUE_LEN;
   15cd0:	e3a0000d 	mov	r0, #13
   15cd4:	e8bd8010 	pop	{r4, pc}
        return BLE_ATT_ERR_UNLIKELY;
   15cd8:	e3a0000e 	mov	r0, #14
        return BLE_ATT_ERR_UNLIKELY;
    }

    return 0;
}
   15cdc:	e8bd8010 	pop	{r4, pc}
   15ce0:	00042940 	.word	0x00042940
   15ce4:	0002ac78 	.word	0x0002ac78
   15ce8:	0002ac94 	.word	0x0002ac94
   15cec:	0002ad30 	.word	0x0002ad30
   15cf0:	0004324c 	.word	0x0004324c
   15cf4:	00043218 	.word	0x00043218
   15cf8:	0002abec 	.word	0x0002abec
   15cfc:	0002ac08 	.word	0x0002ac08
   15d00:	0002feee 	.word	0x0002feee

00015d04 <ble_svc_lls_on_gap_disconnect>:
 *                              event.
 */
void
ble_svc_lls_on_gap_disconnect(int reason)
{
    if (reason == BLE_HS_HCI_ERR(BLE_ERR_CONN_SPVN_TMO)) {
   15d04:	e3500f82 	cmp	r0, #520	; 0x208
   15d08:	112fff1e 	bxne	lr
            ble_svc_lls_cb_fn(ble_svc_lls_alert_level);
   15d0c:	e59f300c 	ldr	r3, [pc, #12]	; 15d20 <ble_svc_lls_on_gap_disconnect+0x1c>
   15d10:	e08f3003 	add	r3, pc, r3
   15d14:	e5932004 	ldr	r2, [r3, #4]
   15d18:	e5d30000 	ldrb	r0, [r3]
   15d1c:	e12fff12 	bx	r2
   15d20:	000431a0 	.word	0x000431a0

00015d24 <ble_svc_lls_alert_level_get>:
 */
uint8_t
ble_svc_lls_alert_level_get(void)
{
    return ble_svc_lls_alert_level;
}
   15d24:	e59f3008 	ldr	r3, [pc, #8]	; 15d34 <ble_svc_lls_alert_level_get+0x10>
   15d28:	e08f3003 	add	r3, pc, r3
   15d2c:	e5d30000 	ldrb	r0, [r3]
   15d30:	e12fff1e 	bx	lr
   15d34:	00043188 	.word	0x00043188

00015d38 <ble_svc_lls_alert_level_set>:
 * @return 0 on success, BLE_HS_EINVAL if the given alert level is not valid.
 */
int
ble_svc_lls_alert_level_set(uint8_t alert_level)
{
    if (alert_level > BLE_SVC_LLS_ALERT_LEVEL_HIGH_ALERT) {
   15d38:	e3500002 	cmp	r0, #2
   15d3c:	8a000004 	bhi	15d54 <ble_svc_lls_alert_level_set+0x1c>
        return BLE_HS_EINVAL;
    }

    memcpy(&ble_svc_lls_alert_level, &alert_level,
   15d40:	e59f3014 	ldr	r3, [pc, #20]	; 15d5c <ble_svc_lls_alert_level_set+0x24>
   15d44:	e08f3003 	add	r3, pc, r3
   15d48:	e5c30000 	strb	r0, [r3]
           sizeof alert_level);

    return 0;
   15d4c:	e3a00000 	mov	r0, #0
   15d50:	e12fff1e 	bx	lr
        return BLE_HS_EINVAL;
   15d54:	e3a00003 	mov	r0, #3
}
   15d58:	e12fff1e 	bx	lr
   15d5c:	0004316c 	.word	0x0004316c

00015d60 <ble_svc_lls_set_cb>:

void
ble_svc_lls_set_cb(ble_svc_lls_event_fn *cb)
{
    ble_svc_lls_cb_fn = cb;
   15d60:	e59f3008 	ldr	r3, [pc, #8]	; 15d70 <ble_svc_lls_set_cb+0x10>
   15d64:	e08f3003 	add	r3, pc, r3
   15d68:	e5830004 	str	r0, [r3, #4]
   15d6c:	e12fff1e 	bx	lr
   15d70:	0004314c 	.word	0x0004314c

00015d74 <ble_svc_lls_init>:
/**
 * Initialize the IAS package.
 */
void
ble_svc_lls_init(void)
{
   15d74:	e92d4010 	push	{r4, lr}
    int rc;

    /* Ensure this function only gets called by sysinit. */
    SYSINIT_ASSERT_ACTIVE();

    rc = ble_gatts_count_cfg(ble_svc_lls_defs);
   15d78:	e59f4068 	ldr	r4, [pc, #104]	; 15de8 <ble_svc_lls_init+0x74>
   15d7c:	e08f4004 	add	r4, pc, r4
   15d80:	e1a00004 	mov	r0, r4
   15d84:	eb002aa9 	bl	20830 <ble_gatts_count_cfg>
    SYSINIT_PANIC_ASSERT(rc == 0);
   15d88:	e3500000 	cmp	r0, #0
   15d8c:	0a000008 	beq	15db4 <ble_svc_lls_init+0x40>
   15d90:	e59f3054 	ldr	r3, [pc, #84]	; 15dec <ble_svc_lls_init+0x78>
   15d94:	e59f1054 	ldr	r1, [pc, #84]	; 15df0 <ble_svc_lls_init+0x7c>
   15d98:	e59f0054 	ldr	r0, [pc, #84]	; 15df4 <ble_svc_lls_init+0x80>
   15d9c:	e08f3003 	add	r3, pc, r3
   15da0:	e2833013 	add	r3, r3, #19
   15da4:	e3a020bd 	mov	r2, #189	; 0xbd
   15da8:	e08f1001 	add	r1, pc, r1
   15dac:	e08f0000 	add	r0, pc, r0
   15db0:	ea00000b 	b	15de4 <ble_svc_lls_init+0x70>

    rc = ble_gatts_add_svcs(ble_svc_lls_defs);
   15db4:	e1a00004 	mov	r0, r4
   15db8:	eb002a67 	bl	2075c <ble_gatts_add_svcs>
    SYSINIT_PANIC_ASSERT(rc == 0);
   15dbc:	e3500000 	cmp	r0, #0
   15dc0:	08bd8010 	popeq	{r4, pc}
   15dc4:	e59f302c 	ldr	r3, [pc, #44]	; 15df8 <ble_svc_lls_init+0x84>
   15dc8:	e59f102c 	ldr	r1, [pc, #44]	; 15dfc <ble_svc_lls_init+0x88>
   15dcc:	e59f002c 	ldr	r0, [pc, #44]	; 15e00 <ble_svc_lls_init+0x8c>
   15dd0:	e08f3003 	add	r3, pc, r3
   15dd4:	e2833013 	add	r3, r3, #19
   15dd8:	e3a020c0 	mov	r2, #192	; 0xc0
   15ddc:	e08f1001 	add	r1, pc, r1
   15de0:	e08f0000 	add	r0, pc, r0
   15de4:	ebfff0c1 	bl	120f0 <__assert@plt>
   15de8:	00040b78 	.word	0x00040b78
   15dec:	0002ab0c 	.word	0x0002ab0c
   15df0:	0002ab24 	.word	0x0002ab24
   15df4:	00029d8e 	.word	0x00029d8e
   15df8:	0002aad8 	.word	0x0002aad8
   15dfc:	0002aaf0 	.word	0x0002aaf0
   15e00:	00029d5a 	.word	0x00029d5a

00015e04 <ble_svc_tps_access>:
 * characteristic.
 */
static int
ble_svc_tps_access(uint16_t conn_handle, uint16_t attr_handle,
                   struct ble_gatt_access_ctxt *ctxt, void *arg)
{
   15e04:	e92d4013 	push	{r0, r1, r4, lr}
    int rc;

    assert(ctxt->chr == &ble_svc_tps_defs[0].characteristics[0]);
   15e08:	e5921008 	ldr	r1, [r2, #8]
{
   15e0c:	e1a04002 	mov	r4, r2
    assert(ctxt->chr == &ble_svc_tps_defs[0].characteristics[0]);
   15e10:	e59f20a4 	ldr	r2, [pc, #164]	; 15ebc <ble_svc_tps_access+0xb8>
{
   15e14:	e59f30a4 	ldr	r3, [pc, #164]	; 15ec0 <ble_svc_tps_access+0xbc>
    assert(ctxt->chr == &ble_svc_tps_defs[0].characteristics[0]);
   15e18:	e08f2002 	add	r2, pc, r2
   15e1c:	e1510002 	cmp	r1, r2
{
   15e20:	e08f3003 	add	r3, pc, r3
    assert(ctxt->chr == &ble_svc_tps_defs[0].characteristics[0]);
   15e24:	0a000007 	beq	15e48 <ble_svc_tps_access+0x44>
   15e28:	e59f3094 	ldr	r3, [pc, #148]	; 15ec4 <ble_svc_tps_access+0xc0>
   15e2c:	e59f1094 	ldr	r1, [pc, #148]	; 15ec8 <ble_svc_tps_access+0xc4>
   15e30:	e59f0094 	ldr	r0, [pc, #148]	; 15ecc <ble_svc_tps_access+0xc8>
   15e34:	e08f3003 	add	r3, pc, r3
   15e38:	e3a02046 	mov	r2, #70	; 0x46
   15e3c:	e08f1001 	add	r1, pc, r1
   15e40:	e08f0000 	add	r0, pc, r0
   15e44:	ea000019 	b	15eb0 <ble_svc_tps_access+0xac>

    switch (ctxt->op) {
   15e48:	e5d42000 	ldrb	r2, [r4]
   15e4c:	e3520000 	cmp	r2, #0
   15e50:	1a00000f 	bne	15e94 <ble_svc_tps_access+0x90>
    case BLE_GATT_ACCESS_OP_READ_CHR:
        rc = ble_hs_hci_util_read_adv_tx_pwr(&ble_svc_tps_tx_power_level);
   15e54:	e59f2074 	ldr	r2, [pc, #116]	; 15ed0 <ble_svc_tps_access+0xcc>
   15e58:	e7933002 	ldr	r3, [r3, r2]
   15e5c:	e1a00003 	mov	r0, r3
   15e60:	e58d3004 	str	r3, [sp, #4]
   15e64:	eb003b16 	bl	24ac4 <ble_hs_hci_util_read_adv_tx_pwr>
        if (rc != 0) {
   15e68:	e3500000 	cmp	r0, #0
            return BLE_ATT_ERR_UNLIKELY;
   15e6c:	13a0000e 	movne	r0, #14
        if (rc != 0) {
   15e70:	1a00000f 	bne	15eb4 <ble_svc_tps_access+0xb0>
        }

        rc = os_mbuf_append(ctxt->om, &ble_svc_tps_tx_power_level,
   15e74:	e3a02001 	mov	r2, #1
   15e78:	e59d1004 	ldr	r1, [sp, #4]
   15e7c:	e5940004 	ldr	r0, [r4, #4]
   15e80:	eb00679c 	bl	2fcf8 <os_mbuf_append>
                            sizeof ble_svc_tps_tx_power_level);
        return rc == 0 ? 0 : BLE_ATT_ERR_INSUFFICIENT_RES;
   15e84:	e3500000 	cmp	r0, #0
   15e88:	13a00011 	movne	r0, #17
   15e8c:	03a00000 	moveq	r0, #0
   15e90:	ea000007 	b	15eb4 <ble_svc_tps_access+0xb0>

    default:
        assert(0);
   15e94:	e59f3038 	ldr	r3, [pc, #56]	; 15ed4 <ble_svc_tps_access+0xd0>
   15e98:	e59f1038 	ldr	r1, [pc, #56]	; 15ed8 <ble_svc_tps_access+0xd4>
   15e9c:	e59f0038 	ldr	r0, [pc, #56]	; 15edc <ble_svc_tps_access+0xd8>
   15ea0:	e08f3003 	add	r3, pc, r3
   15ea4:	e3a02054 	mov	r2, #84	; 0x54
   15ea8:	e08f1001 	add	r1, pc, r1
   15eac:	e08f0000 	add	r0, pc, r0
   15eb0:	ebfff08e 	bl	120f0 <__assert@plt>
        return BLE_ATT_ERR_UNLIKELY;
    }

    return 0;
}
   15eb4:	e28dd008 	add	sp, sp, #8
   15eb8:	e8bd8010 	pop	{r4, pc}
   15ebc:	00042778 	.word	0x00042778
   15ec0:	000421d8 	.word	0x000421d8
   15ec4:	0002ab6d 	.word	0x0002ab6d
   15ec8:	0002ab89 	.word	0x0002ab89
   15ecc:	0002ac25 	.word	0x0002ac25
   15ed0:	0000026c 	.word	0x0000026c
   15ed4:	0002ab01 	.word	0x0002ab01
   15ed8:	0002ab1d 	.word	0x0002ab1d
   15edc:	0002fd0a 	.word	0x0002fd0a

00015ee0 <ble_svc_tps_init>:
/**
 * Initialize the TPS
 */
void
ble_svc_tps_init(void)
{
   15ee0:	e92d4010 	push	{r4, lr}
    int rc;

    /* Ensure this function only gets called by sysinit. */
    SYSINIT_ASSERT_ACTIVE();

    rc = ble_gatts_count_cfg(ble_svc_tps_defs);
   15ee4:	e59f4068 	ldr	r4, [pc, #104]	; 15f54 <ble_svc_tps_init+0x74>
   15ee8:	e08f4004 	add	r4, pc, r4
   15eec:	e1a00004 	mov	r0, r4
   15ef0:	eb002a4e 	bl	20830 <ble_gatts_count_cfg>
    SYSINIT_PANIC_ASSERT(rc == 0);
   15ef4:	e3500000 	cmp	r0, #0
   15ef8:	0a000008 	beq	15f20 <ble_svc_tps_init+0x40>
   15efc:	e59f3054 	ldr	r3, [pc, #84]	; 15f58 <ble_svc_tps_init+0x78>
   15f00:	e59f1054 	ldr	r1, [pc, #84]	; 15f5c <ble_svc_tps_init+0x7c>
   15f04:	e59f0054 	ldr	r0, [pc, #84]	; 15f60 <ble_svc_tps_init+0x80>
   15f08:	e08f3003 	add	r3, pc, r3
   15f0c:	e2833013 	add	r3, r3, #19
   15f10:	e3a02067 	mov	r2, #103	; 0x67
   15f14:	e08f1001 	add	r1, pc, r1
   15f18:	e08f0000 	add	r0, pc, r0
   15f1c:	ea00000b 	b	15f50 <ble_svc_tps_init+0x70>

    rc = ble_gatts_add_svcs(ble_svc_tps_defs);
   15f20:	e1a00004 	mov	r0, r4
